((dp1
S'/home/postma/In_progress/mfs_classifier/resources/wsd_corpora/semeval2015_task13_en/2.naf---t449'
p2
cnumpy.core.multiarray
scalar
p3
(cnumpy
dtype
p4
(S'S1'
I0
I1
tRp5
(I3
S'|'
NNNI1
I1
I0
tbS'1'
tRp6
sS'/home/postma/In_progress/mfs_classifier/resources/wsd_corpora/semeval2015_task13_en/3.naf---t512'
p7
g3
(g4
(S'S1'
I0
I1
tRp8
(I3
S'|'
NNNI1
I1
I0
tbS'1'
tRp9
sS'/home/postma/In_progress/mfs_classifier/resources/wsd_corpora/semeval2015_task13_en/3.naf---t514'
p10
g3
(g4
(S'S1'
I0
I1
tRp11
(I3
S'|'
NNNI1
I1
I0
tbS'1'
tRp12
sS'/home/postma/In_progress/mfs_classifier/resources/wsd_corpora/semeval2015_task13_en/3.naf---t517'
p13
g3
(g4
(S'S1'
I0
I1
tRp14
(I3
S'|'
NNNI1
I1
I0
tbS'1'
tRp15
sS'/home/postma/In_progress/mfs_classifier/resources/wsd_corpora/semeval2015_task13_en/2.naf---t373'
p16
g3
(g4
(S'S1'
I0
I1
tRp17
(I3
S'|'
NNNI1
I1
I0
tbS'1'
tRp18
sS'/home/postma/In_progress/mfs_classifier/resources/wsd_corpora/semeval2015_task13_en/3.naf---t519'
p19
g3
(g4
(S'S1'
I0
I1
tRp20
(I3
S'|'
NNNI1
I1
I0
tbS'0'
tRp21
sS'/home/postma/In_progress/mfs_classifier/resources/wsd_corpora/semeval2015_task13_en/4.naf---t48'
p22
g3
(g4
(S'S1'
I0
I1
tRp23
(I3
S'|'
NNNI1
I1
I0
tbS'1'
tRp24
sS'/home/postma/In_progress/mfs_classifier/resources/wsd_corpora/semeval2015_task13_en/1.naf---t322'
p25
g3
(g4
(S'S1'
I0
I1
tRp26
(I3
S'|'
NNNI1
I1
I0
tbS'1'
tRp27
sS'/home/postma/In_progress/mfs_classifier/resources/wsd_corpora/semeval2015_task13_en/4.naf---t41'
p28
g3
(g4
(S'S1'
I0
I1
tRp29
(I3
S'|'
NNNI1
I1
I0
tbS'0'
tRp30
sS'/home/postma/In_progress/mfs_classifier/resources/wsd_corpora/semeval2015_task13_en/1.naf---t449'
p31
g3
(g4
(S'S1'
I0
I1
tRp32
(I3
S'|'
NNNI1
I1
I0
tbS'1'
tRp33
sS'/home/postma/In_progress/mfs_classifier/resources/wsd_corpora/semeval2015_task13_en/2.naf---t606'
p34
g3
(g4
(S'S1'
I0
I1
tRp35
(I3
S'|'
NNNI1
I1
I0
tbS'1'
tRp36
sS'/home/postma/In_progress/mfs_classifier/resources/wsd_corpora/semeval2015_task13_en/1.naf---t723'
p37
g3
(g4
(S'S1'
I0
I1
tRp38
(I3
S'|'
NNNI1
I1
I0
tbS'1'
tRp39
sS'/home/postma/In_progress/mfs_classifier/resources/wsd_corpora/semeval2015_task13_en/1.naf---t722'
p40
g3
(g4
(S'S1'
I0
I1
tRp41
(I3
S'|'
NNNI1
I1
I0
tbS'1'
tRp42
sS'/home/postma/In_progress/mfs_classifier/resources/wsd_corpora/semeval2015_task13_en/2.naf---t603'
p43
g3
(g4
(S'S1'
I0
I1
tRp44
(I3
S'|'
NNNI1
I1
I0
tbS'1'
tRp45
sS'/home/postma/In_progress/mfs_classifier/resources/wsd_corpora/semeval2015_task13_en/2.naf---t601'
p46
g3
(g4
(S'S1'
I0
I1
tRp47
(I3
S'|'
NNNI1
I1
I0
tbS'1'
tRp48
sS'/home/postma/In_progress/mfs_classifier/resources/wsd_corpora/semeval2015_task13_en/2.naf---t600'
p49
g3
(g4
(S'S1'
I0
I1
tRp50
(I3
S'|'
NNNI1
I1
I0
tbS'1'
tRp51
sS'/home/postma/In_progress/mfs_classifier/resources/wsd_corpora/semeval2015_task13_en/1.naf---t682'
p52
g3
(g4
(S'S1'
I0
I1
tRp53
(I3
S'|'
NNNI1
I1
I0
tbS'1'
tRp54
sS'/home/postma/In_progress/mfs_classifier/resources/wsd_corpora/semeval2015_task13_en/3.naf---t15'
p55
g3
(g4
(S'S1'
I0
I1
tRp56
(I3
S'|'
NNNI1
I1
I0
tbS'0'
tRp57
sS'/home/postma/In_progress/mfs_classifier/resources/wsd_corpora/semeval2015_task13_en/1.naf---t687'
p58
g3
(g4
(S'S1'
I0
I1
tRp59
(I3
S'|'
NNNI1
I1
I0
tbS'1'
tRp60
sS'/home/postma/In_progress/mfs_classifier/resources/wsd_corpora/semeval2015_task13_en/2.naf---t372'
p61
g3
(g4
(S'S1'
I0
I1
tRp62
(I3
S'|'
NNNI1
I1
I0
tbS'1'
tRp63
sS'/home/postma/In_progress/mfs_classifier/resources/wsd_corpora/semeval2015_task13_en/2.naf---t174'
p64
g3
(g4
(S'S1'
I0
I1
tRp65
(I3
S'|'
NNNI1
I1
I0
tbS'0'
tRp66
sS'/home/postma/In_progress/mfs_classifier/resources/wsd_corpora/semeval2015_task13_en/4.naf---t423'
p67
g3
(g4
(S'S1'
I0
I1
tRp68
(I3
S'|'
NNNI1
I1
I0
tbS'1'
tRp69
sS'/home/postma/In_progress/mfs_classifier/resources/wsd_corpora/semeval2015_task13_en/3.naf---t363'
p70
g3
(g4
(S'S1'
I0
I1
tRp71
(I3
S'|'
NNNI1
I1
I0
tbS'1'
tRp72
sS'/home/postma/In_progress/mfs_classifier/resources/wsd_corpora/semeval2015_task13_en/2.naf---t211'
p73
g3
(g4
(S'S1'
I0
I1
tRp74
(I3
S'|'
NNNI1
I1
I0
tbS'1'
tRp75
sS'/home/postma/In_progress/mfs_classifier/resources/wsd_corpora/semeval2015_task13_en/1.naf---t528'
p76
g3
(g4
(S'S1'
I0
I1
tRp77
(I3
S'|'
NNNI1
I1
I0
tbS'0'
tRp78
sS'/home/postma/In_progress/mfs_classifier/resources/wsd_corpora/semeval2015_task13_en/3.naf---t208'
p79
g3
(g4
(S'S1'
I0
I1
tRp80
(I3
S'|'
NNNI1
I1
I0
tbS'1'
tRp81
sS'/home/postma/In_progress/mfs_classifier/resources/wsd_corpora/semeval2015_task13_en/2.naf---t215'
p82
g3
(g4
(S'S1'
I0
I1
tRp83
(I3
S'|'
NNNI1
I1
I0
tbS'1'
tRp84
sS'/home/postma/In_progress/mfs_classifier/resources/wsd_corpora/semeval2015_task13_en/3.naf---t364'
p85
g3
(g4
(S'S1'
I0
I1
tRp86
(I3
S'|'
NNNI1
I1
I0
tbS'1'
tRp87
sS'/home/postma/In_progress/mfs_classifier/resources/wsd_corpora/semeval2015_task13_en/3.naf---t204'
p88
g3
(g4
(S'S1'
I0
I1
tRp89
(I3
S'|'
NNNI1
I1
I0
tbS'1'
tRp90
sS'/home/postma/In_progress/mfs_classifier/resources/wsd_corpora/semeval2015_task13_en/3.naf---t190'
p91
g3
(g4
(S'S1'
I0
I1
tRp92
(I3
S'|'
NNNI1
I1
I0
tbS'0'
tRp93
sS'/home/postma/In_progress/mfs_classifier/resources/wsd_corpora/semeval2015_task13_en/3.naf---t368'
p94
g3
(g4
(S'S1'
I0
I1
tRp95
(I3
S'|'
NNNI1
I1
I0
tbS'1'
tRp96
sS'/home/postma/In_progress/mfs_classifier/resources/wsd_corpora/semeval2015_task13_en/3.naf---t201'
p97
g3
(g4
(S'S1'
I0
I1
tRp98
(I3
S'|'
NNNI1
I1
I0
tbS'1'
tRp99
sS'/home/postma/In_progress/mfs_classifier/resources/wsd_corpora/semeval2015_task13_en/2.naf---t155'
p100
g3
(g4
(S'S1'
I0
I1
tRp101
(I3
S'|'
NNNI1
I1
I0
tbS'1'
tRp102
sS'/home/postma/In_progress/mfs_classifier/resources/wsd_corpora/semeval2015_task13_en/2.naf---t712'
p103
g3
(g4
(S'S1'
I0
I1
tRp104
(I3
S'|'
NNNI1
I1
I0
tbS'1'
tRp105
sS'/home/postma/In_progress/mfs_classifier/resources/wsd_corpora/semeval2015_task13_en/2.naf---t572'
p106
g3
(g4
(S'S1'
I0
I1
tRp107
(I3
S'|'
NNNI1
I1
I0
tbS'1'
tRp108
sS'/home/postma/In_progress/mfs_classifier/resources/wsd_corpora/semeval2015_task13_en/3.naf---t90'
p109
g3
(g4
(S'S1'
I0
I1
tRp110
(I3
S'|'
NNNI1
I1
I0
tbS'1'
tRp111
sS'/home/postma/In_progress/mfs_classifier/resources/wsd_corpora/semeval2015_task13_en/3.naf---t91'
p112
g3
(g4
(S'S1'
I0
I1
tRp113
(I3
S'|'
NNNI1
I1
I0
tbS'0'
tRp114
sS'/home/postma/In_progress/mfs_classifier/resources/wsd_corpora/semeval2015_task13_en/3.naf---t96'
p115
g3
(g4
(S'S1'
I0
I1
tRp116
(I3
S'|'
NNNI1
I1
I0
tbS'1'
tRp117
sS'/home/postma/In_progress/mfs_classifier/resources/wsd_corpora/semeval2015_task13_en/3.naf---t94'
p118
g3
(g4
(S'S1'
I0
I1
tRp119
(I3
S'|'
NNNI1
I1
I0
tbS'1'
tRp120
sS'/home/postma/In_progress/mfs_classifier/resources/wsd_corpora/semeval2015_task13_en/1.naf---t135'
p121
g3
(g4
(S'S1'
I0
I1
tRp122
(I3
S'|'
NNNI1
I1
I0
tbS'1'
tRp123
sS'/home/postma/In_progress/mfs_classifier/resources/wsd_corpora/semeval2015_task13_en/2.naf---t314'
p124
g3
(g4
(S'S1'
I0
I1
tRp125
(I3
S'|'
NNNI1
I1
I0
tbS'1'
tRp126
sS'/home/postma/In_progress/mfs_classifier/resources/wsd_corpora/semeval2015_task13_en/3.naf---t2'
p127
g3
(g4
(S'S1'
I0
I1
tRp128
(I3
S'|'
NNNI1
I1
I0
tbS'1'
tRp129
sS'/home/postma/In_progress/mfs_classifier/resources/wsd_corpora/semeval2015_task13_en/2.naf---t700'
p130
g3
(g4
(S'S1'
I0
I1
tRp131
(I3
S'|'
NNNI1
I1
I0
tbS'1'
tRp132
sS'/home/postma/In_progress/mfs_classifier/resources/wsd_corpora/semeval2015_task13_en/3.naf---t6'
p133
g3
(g4
(S'S1'
I0
I1
tRp134
(I3
S'|'
NNNI1
I1
I0
tbS'0'
tRp135
sS'/home/postma/In_progress/mfs_classifier/resources/wsd_corpora/semeval2015_task13_en/2.naf---t493'
p136
g3
(g4
(S'S1'
I0
I1
tRp137
(I3
S'|'
NNNI1
I1
I0
tbS'0'
tRp138
sS'/home/postma/In_progress/mfs_classifier/resources/wsd_corpora/semeval2015_task13_en/3.naf---t8'
p139
g3
(g4
(S'S1'
I0
I1
tRp140
(I3
S'|'
NNNI1
I1
I0
tbS'0'
tRp141
sS'/home/postma/In_progress/mfs_classifier/resources/wsd_corpora/semeval2015_task13_en/1.naf---t548'
p142
g3
(g4
(S'S1'
I0
I1
tRp143
(I3
S'|'
NNNI1
I1
I0
tbS'1'
tRp144
sS'/home/postma/In_progress/mfs_classifier/resources/wsd_corpora/semeval2015_task13_en/4.naf---t2'
p145
g3
(g4
(S'S1'
I0
I1
tRp146
(I3
S'|'
NNNI1
I1
I0
tbS'1'
tRp147
sS'/home/postma/In_progress/mfs_classifier/resources/wsd_corpora/semeval2015_task13_en/2.naf---t384'
p148
g3
(g4
(S'S1'
I0
I1
tRp149
(I3
S'|'
NNNI1
I1
I0
tbS'1'
tRp150
sS'/home/postma/In_progress/mfs_classifier/resources/wsd_corpora/semeval2015_task13_en/1.naf---t662'
p151
g3
(g4
(S'S1'
I0
I1
tRp152
(I3
S'|'
NNNI1
I1
I0
tbS'1'
tRp153
sS'/home/postma/In_progress/mfs_classifier/resources/wsd_corpora/semeval2015_task13_en/1.naf---t249'
p154
g3
(g4
(S'S1'
I0
I1
tRp155
(I3
S'|'
NNNI1
I1
I0
tbS'1'
tRp156
sS'/home/postma/In_progress/mfs_classifier/resources/wsd_corpora/semeval2015_task13_en/2.naf---t429'
p157
g3
(g4
(S'S1'
I0
I1
tRp158
(I3
S'|'
NNNI1
I1
I0
tbS'1'
tRp159
sS'/home/postma/In_progress/mfs_classifier/resources/wsd_corpora/semeval2015_task13_en/1.naf---t668'
p160
g3
(g4
(S'S1'
I0
I1
tRp161
(I3
S'|'
NNNI1
I1
I0
tbS'1'
tRp162
sS'/home/postma/In_progress/mfs_classifier/resources/wsd_corpora/semeval2015_task13_en/1.naf---t669'
p163
g3
(g4
(S'S1'
I0
I1
tRp164
(I3
S'|'
NNNI1
I1
I0
tbS'0'
tRp165
sS'/home/postma/In_progress/mfs_classifier/resources/wsd_corpora/semeval2015_task13_en/2.naf---t424'
p166
g3
(g4
(S'S1'
I0
I1
tRp167
(I3
S'|'
NNNI1
I1
I0
tbS'1'
tRp168
sS'/home/postma/In_progress/mfs_classifier/resources/wsd_corpora/semeval2015_task13_en/2.naf---t422'
p169
g3
(g4
(S'S1'
I0
I1
tRp170
(I3
S'|'
NNNI1
I1
I0
tbS'1'
tRp171
sS'/home/postma/In_progress/mfs_classifier/resources/wsd_corpora/semeval2015_task13_en/2.naf---t420'
p172
g3
(g4
(S'S1'
I0
I1
tRp173
(I3
S'|'
NNNI1
I1
I0
tbS'0'
tRp174
sS'/home/postma/In_progress/mfs_classifier/resources/wsd_corpora/semeval2015_task13_en/4.naf---t450'
p175
g3
(g4
(S'S1'
I0
I1
tRp176
(I3
S'|'
NNNI1
I1
I0
tbS'1'
tRp177
sS'/home/postma/In_progress/mfs_classifier/resources/wsd_corpora/semeval2015_task13_en/2.naf---t192'
p178
g3
(g4
(S'S1'
I0
I1
tRp179
(I3
S'|'
NNNI1
I1
I0
tbS'1'
tRp180
sS'/home/postma/In_progress/mfs_classifier/resources/wsd_corpora/semeval2015_task13_en/4.naf---t452'
p181
g3
(g4
(S'S1'
I0
I1
tRp182
(I3
S'|'
NNNI1
I1
I0
tbS'0'
tRp183
sS'/home/postma/In_progress/mfs_classifier/resources/wsd_corpora/semeval2015_task13_en/4.naf---t101'
p184
g3
(g4
(S'S1'
I0
I1
tRp185
(I3
S'|'
NNNI1
I1
I0
tbS'1'
tRp186
sS'/home/postma/In_progress/mfs_classifier/resources/wsd_corpora/semeval2015_task13_en/4.naf---t454'
p187
g3
(g4
(S'S1'
I0
I1
tRp188
(I3
S'|'
NNNI1
I1
I0
tbS'0'
tRp189
sS'/home/postma/In_progress/mfs_classifier/resources/wsd_corpora/semeval2015_task13_en/4.naf---t107'
p190
g3
(g4
(S'S1'
I0
I1
tRp191
(I3
S'|'
NNNI1
I1
I0
tbS'1'
tRp192
sS'/home/postma/In_progress/mfs_classifier/resources/wsd_corpora/semeval2015_task13_en/4.naf---t458'
p193
g3
(g4
(S'S1'
I0
I1
tRp194
(I3
S'|'
NNNI1
I1
I0
tbS'1'
tRp195
sS'/home/postma/In_progress/mfs_classifier/resources/wsd_corpora/semeval2015_task13_en/2.naf---t199'
p196
g3
(g4
(S'S1'
I0
I1
tRp197
(I3
S'|'
NNNI1
I1
I0
tbS'1'
tRp198
sS'/home/postma/In_progress/mfs_classifier/resources/wsd_corpora/semeval2015_task13_en/3.naf---t122'
p199
g3
(g4
(S'S1'
I0
I1
tRp200
(I3
S'|'
NNNI1
I1
I0
tbS'1'
tRp201
sS'/home/postma/In_progress/mfs_classifier/resources/wsd_corpora/semeval2015_task13_en/4.naf---t215'
p202
g3
(g4
(S'S1'
I0
I1
tRp203
(I3
S'|'
NNNI1
I1
I0
tbS'1'
tRp204
sS'/home/postma/In_progress/mfs_classifier/resources/wsd_corpora/semeval2015_task13_en/4.naf---t359'
p205
g3
(g4
(S'S1'
I0
I1
tRp206
(I3
S'|'
NNNI1
I1
I0
tbS'1'
tRp207
sS'/home/postma/In_progress/mfs_classifier/resources/wsd_corpora/semeval2015_task13_en/2.naf---t191'
p208
g3
(g4
(S'S1'
I0
I1
tRp209
(I3
S'|'
NNNI1
I1
I0
tbS'1'
tRp210
sS'/home/postma/In_progress/mfs_classifier/resources/wsd_corpora/semeval2015_task13_en/2.naf---t51'
p211
g3
(g4
(S'S1'
I0
I1
tRp212
(I3
S'|'
NNNI1
I1
I0
tbS'1'
tRp213
sS'/home/postma/In_progress/mfs_classifier/resources/wsd_corpora/semeval2015_task13_en/3.naf---t188'
p214
g3
(g4
(S'S1'
I0
I1
tRp215
(I3
S'|'
NNNI1
I1
I0
tbS'1'
tRp216
sS'/home/postma/In_progress/mfs_classifier/resources/wsd_corpora/semeval2015_task13_en/4.naf---t353'
p217
g3
(g4
(S'S1'
I0
I1
tRp218
(I3
S'|'
NNNI1
I1
I0
tbS'1'
tRp219
sS'/home/postma/In_progress/mfs_classifier/resources/wsd_corpora/semeval2015_task13_en/4.naf---t352'
p220
g3
(g4
(S'S1'
I0
I1
tRp221
(I3
S'|'
NNNI1
I1
I0
tbS'1'
tRp222
sS'/home/postma/In_progress/mfs_classifier/resources/wsd_corpora/semeval2015_task13_en/1.naf---t461'
p223
g3
(g4
(S'S1'
I0
I1
tRp224
(I3
S'|'
NNNI1
I1
I0
tbS'0'
tRp225
sS'/home/postma/In_progress/mfs_classifier/resources/wsd_corpora/semeval2015_task13_en/1.naf---t465'
p226
g3
(g4
(S'S1'
I0
I1
tRp227
(I3
S'|'
NNNI1
I1
I0
tbS'1'
tRp228
sS'/home/postma/In_progress/mfs_classifier/resources/wsd_corpora/semeval2015_task13_en/1.naf---t469'
p229
g3
(g4
(S'S1'
I0
I1
tRp230
(I3
S'|'
NNNI1
I1
I0
tbS'0'
tRp231
sS'/home/postma/In_progress/mfs_classifier/resources/wsd_corpora/semeval2015_task13_en/1.naf---t455'
p232
g3
(g4
(S'S1'
I0
I1
tRp233
(I3
S'|'
NNNI1
I1
I0
tbS'1'
tRp234
sS'/home/postma/In_progress/mfs_classifier/resources/wsd_corpora/semeval2015_task13_en/4.naf---t424'
p235
g3
(g4
(S'S1'
I0
I1
tRp236
(I3
S'|'
NNNI1
I1
I0
tbS'1'
tRp237
sS'/home/postma/In_progress/mfs_classifier/resources/wsd_corpora/semeval2015_task13_en/4.naf---t427'
p238
g3
(g4
(S'S1'
I0
I1
tRp239
(I3
S'|'
NNNI1
I1
I0
tbS'1'
tRp240
sS'/home/postma/In_progress/mfs_classifier/resources/wsd_corpora/semeval2015_task13_en/3.naf---t478'
p241
g3
(g4
(S'S1'
I0
I1
tRp242
(I3
S'|'
NNNI1
I1
I0
tbS'1'
tRp243
sS'/home/postma/In_progress/mfs_classifier/resources/wsd_corpora/semeval2015_task13_en/4.naf---t421'
p244
g3
(g4
(S'S1'
I0
I1
tRp245
(I3
S'|'
NNNI1
I1
I0
tbS'0'
tRp246
sS'/home/postma/In_progress/mfs_classifier/resources/wsd_corpora/semeval2015_task13_en/4.naf---t39'
p247
g3
(g4
(S'S1'
I0
I1
tRp248
(I3
S'|'
NNNI1
I1
I0
tbS'1'
tRp249
sS'/home/postma/In_progress/mfs_classifier/resources/wsd_corpora/semeval2015_task13_en/3.naf---t473'
p250
g3
(g4
(S'S1'
I0
I1
tRp251
(I3
S'|'
NNNI1
I1
I0
tbS'1'
tRp252
sS'/home/postma/In_progress/mfs_classifier/resources/wsd_corpora/semeval2015_task13_en/3.naf---t472'
p253
g3
(g4
(S'S1'
I0
I1
tRp254
(I3
S'|'
NNNI1
I1
I0
tbS'0'
tRp255
sS'/home/postma/In_progress/mfs_classifier/resources/wsd_corpora/semeval2015_task13_en/4.naf---t35'
p256
g3
(g4
(S'S1'
I0
I1
tRp257
(I3
S'|'
NNNI1
I1
I0
tbS'1'
tRp258
sS'/home/postma/In_progress/mfs_classifier/resources/wsd_corpora/semeval2015_task13_en/3.naf---t470'
p259
g3
(g4
(S'S1'
I0
I1
tRp260
(I3
S'|'
NNNI1
I1
I0
tbS'1'
tRp261
sS'/home/postma/In_progress/mfs_classifier/resources/wsd_corpora/semeval2015_task13_en/4.naf---t33'
p262
g3
(g4
(S'S1'
I0
I1
tRp263
(I3
S'|'
NNNI1
I1
I0
tbS'0'
tRp264
sS'/home/postma/In_progress/mfs_classifier/resources/wsd_corpora/semeval2015_task13_en/3.naf---t475'
p265
g3
(g4
(S'S1'
I0
I1
tRp266
(I3
S'|'
NNNI1
I1
I0
tbS'0'
tRp267
sS'/home/postma/In_progress/mfs_classifier/resources/wsd_corpora/semeval2015_task13_en/4.naf---t30'
p268
g3
(g4
(S'S1'
I0
I1
tRp269
(I3
S'|'
NNNI1
I1
I0
tbS'0'
tRp270
sS'/home/postma/In_progress/mfs_classifier/resources/wsd_corpora/semeval2015_task13_en/1.naf---t291'
p271
g3
(g4
(S'S1'
I0
I1
tRp272
(I3
S'|'
NNNI1
I1
I0
tbS'1'
tRp273
sS'/home/postma/In_progress/mfs_classifier/resources/wsd_corpora/semeval2015_task13_en/4.naf---t299'
p274
g3
(g4
(S'S1'
I0
I1
tRp275
(I3
S'|'
NNNI1
I1
I0
tbS'1'
tRp276
sS'/home/postma/In_progress/mfs_classifier/resources/wsd_corpora/semeval2015_task13_en/1.naf---t293'
p277
g3
(g4
(S'S1'
I0
I1
tRp278
(I3
S'|'
NNNI1
I1
I0
tbS'0'
tRp279
sS'/home/postma/In_progress/mfs_classifier/resources/wsd_corpora/semeval2015_task13_en/3.naf---t181'
p280
g3
(g4
(S'S1'
I0
I1
tRp281
(I3
S'|'
NNNI1
I1
I0
tbS'1'
tRp282
sS'/home/postma/In_progress/mfs_classifier/resources/wsd_corpora/semeval2015_task13_en/1.naf---t299'
p283
g3
(g4
(S'S1'
I0
I1
tRp284
(I3
S'|'
NNNI1
I1
I0
tbS'1'
tRp285
sS'/home/postma/In_progress/mfs_classifier/resources/wsd_corpora/semeval2015_task13_en/3.naf---t107'
p286
g3
(g4
(S'S1'
I0
I1
tRp287
(I3
S'|'
NNNI1
I1
I0
tbS'0'
tRp288
sS'/home/postma/In_progress/mfs_classifier/resources/wsd_corpora/semeval2015_task13_en/3.naf---t103'
p289
g3
(g4
(S'S1'
I0
I1
tRp290
(I3
S'|'
NNNI1
I1
I0
tbS'1'
tRp291
sS'/home/postma/In_progress/mfs_classifier/resources/wsd_corpora/semeval2015_task13_en/3.naf---t291'
p292
g3
(g4
(S'S1'
I0
I1
tRp293
(I3
S'|'
NNNI1
I1
I0
tbS'1'
tRp294
sS'/home/postma/In_progress/mfs_classifier/resources/wsd_corpora/semeval2015_task13_en/3.naf---t109'
p295
g3
(g4
(S'S1'
I0
I1
tRp296
(I3
S'|'
NNNI1
I1
I0
tbS'1'
tRp297
sS'/home/postma/In_progress/mfs_classifier/resources/wsd_corpora/semeval2015_task13_en/1.naf---t614'
p298
g3
(g4
(S'S1'
I0
I1
tRp299
(I3
S'|'
NNNI1
I1
I0
tbS'1'
tRp300
sS'/home/postma/In_progress/mfs_classifier/resources/wsd_corpora/semeval2015_task13_en/2.naf---t739'
p301
g3
(g4
(S'S1'
I0
I1
tRp302
(I3
S'|'
NNNI1
I1
I0
tbS'0'
tRp303
sS'/home/postma/In_progress/mfs_classifier/resources/wsd_corpora/semeval2015_task13_en/1.naf---t340'
p304
g3
(g4
(S'S1'
I0
I1
tRp305
(I3
S'|'
NNNI1
I1
I0
tbS'1'
tRp306
sS'/home/postma/In_progress/mfs_classifier/resources/wsd_corpora/semeval2015_task13_en/1.naf---t611'
p307
g3
(g4
(S'S1'
I0
I1
tRp308
(I3
S'|'
NNNI1
I1
I0
tbS'1'
tRp309
sS'/home/postma/In_progress/mfs_classifier/resources/wsd_corpora/semeval2015_task13_en/1.naf---t346'
p310
g3
(g4
(S'S1'
I0
I1
tRp311
(I3
S'|'
NNNI1
I1
I0
tbS'1'
tRp312
sS'/home/postma/In_progress/mfs_classifier/resources/wsd_corpora/semeval2015_task13_en/1.naf---t265'
p313
g3
(g4
(S'S1'
I0
I1
tRp314
(I3
S'|'
NNNI1
I1
I0
tbS'1'
tRp315
sS'/home/postma/In_progress/mfs_classifier/resources/wsd_corpora/semeval2015_task13_en/1.naf---t349'
p316
g3
(g4
(S'S1'
I0
I1
tRp317
(I3
S'|'
NNNI1
I1
I0
tbS'1'
tRp318
sS'/home/postma/In_progress/mfs_classifier/resources/wsd_corpora/semeval2015_task13_en/1.naf---t267'
p319
g3
(g4
(S'S1'
I0
I1
tRp320
(I3
S'|'
NNNI1
I1
I0
tbS'1'
tRp321
sS'/home/postma/In_progress/mfs_classifier/resources/wsd_corpora/semeval2015_task13_en/1.naf---t593'
p322
g3
(g4
(S'S1'
I0
I1
tRp323
(I3
S'|'
NNNI1
I1
I0
tbS'1'
tRp324
sS'/home/postma/In_progress/mfs_classifier/resources/wsd_corpora/semeval2015_task13_en/1.naf---t262'
p325
g3
(g4
(S'S1'
I0
I1
tRp326
(I3
S'|'
NNNI1
I1
I0
tbS'1'
tRp327
sS'/home/postma/In_progress/mfs_classifier/resources/wsd_corpora/semeval2015_task13_en/2.naf---t734'
p328
g3
(g4
(S'S1'
I0
I1
tRp329
(I3
S'|'
NNNI1
I1
I0
tbS'1'
tRp330
sS'/home/postma/In_progress/mfs_classifier/resources/wsd_corpora/semeval2015_task13_en/3.naf---t253'
p331
g3
(g4
(S'S1'
I0
I1
tRp332
(I3
S'|'
NNNI1
I1
I0
tbS'1'
tRp333
sS'/home/postma/In_progress/mfs_classifier/resources/wsd_corpora/semeval2015_task13_en/3.naf---t256'
p334
g3
(g4
(S'S1'
I0
I1
tRp335
(I3
S'|'
NNNI1
I1
I0
tbS'1'
tRp336
sS'/home/postma/In_progress/mfs_classifier/resources/wsd_corpora/semeval2015_task13_en/3.naf---t551'
p337
g3
(g4
(S'S1'
I0
I1
tRp338
(I3
S'|'
NNNI1
I1
I0
tbS'1'
tRp339
sS'/home/postma/In_progress/mfs_classifier/resources/wsd_corpora/semeval2015_task13_en/3.naf---t481'
p340
g3
(g4
(S'S1'
I0
I1
tRp341
(I3
S'|'
NNNI1
I1
I0
tbS'1'
tRp342
sS'/home/postma/In_progress/mfs_classifier/resources/wsd_corpora/semeval2015_task13_en/3.naf---t486'
p343
g3
(g4
(S'S1'
I0
I1
tRp344
(I3
S'|'
NNNI1
I1
I0
tbS'1'
tRp345
sS'/home/postma/In_progress/mfs_classifier/resources/wsd_corpora/semeval2015_task13_en/1.naf---t768'
p346
g3
(g4
(S'S1'
I0
I1
tRp347
(I3
S'|'
NNNI1
I1
I0
tbS'1'
tRp348
sS'/home/postma/In_progress/mfs_classifier/resources/wsd_corpora/semeval2015_task13_en/3.naf---t58'
p349
g3
(g4
(S'S1'
I0
I1
tRp350
(I3
S'|'
NNNI1
I1
I0
tbS'0'
tRp351
sS'/home/postma/In_progress/mfs_classifier/resources/wsd_corpora/semeval2015_task13_en/3.naf---t59'
p352
g3
(g4
(S'S1'
I0
I1
tRp353
(I3
S'|'
NNNI1
I1
I0
tbS'1'
tRp354
sS'/home/postma/In_progress/mfs_classifier/resources/wsd_corpora/semeval2015_task13_en/1.naf---t765'
p355
g3
(g4
(S'S1'
I0
I1
tRp356
(I3
S'|'
NNNI1
I1
I0
tbS'1'
tRp357
sS'/home/postma/In_progress/mfs_classifier/resources/wsd_corpora/semeval2015_task13_en/3.naf---t52'
p358
g3
(g4
(S'S1'
I0
I1
tRp359
(I3
S'|'
NNNI1
I1
I0
tbS'1'
tRp360
sS'/home/postma/In_progress/mfs_classifier/resources/wsd_corpora/semeval2015_task13_en/2.naf---t476'
p361
g3
(g4
(S'S1'
I0
I1
tRp362
(I3
S'|'
NNNI1
I1
I0
tbS'1'
tRp363
sS'/home/postma/In_progress/mfs_classifier/resources/wsd_corpora/semeval2015_task13_en/3.naf---t51'
p364
g3
(g4
(S'S1'
I0
I1
tRp365
(I3
S'|'
NNNI1
I1
I0
tbS'1'
tRp366
sS'/home/postma/In_progress/mfs_classifier/resources/wsd_corpora/semeval2015_task13_en/1.naf---t447'
p367
g3
(g4
(S'S1'
I0
I1
tRp368
(I3
S'|'
NNNI1
I1
I0
tbS'1'
tRp369
sS'/home/postma/In_progress/mfs_classifier/resources/wsd_corpora/semeval2015_task13_en/2.naf---t335'
p370
g3
(g4
(S'S1'
I0
I1
tRp371
(I3
S'|'
NNNI1
I1
I0
tbS'0'
tRp372
sS'/home/postma/In_progress/mfs_classifier/resources/wsd_corpora/semeval2015_task13_en/2.naf---t334'
p373
g3
(g4
(S'S1'
I0
I1
tRp374
(I3
S'|'
NNNI1
I1
I0
tbS'1'
tRp375
sS'/home/postma/In_progress/mfs_classifier/resources/wsd_corpora/semeval2015_task13_en/2.naf---t333'
p376
g3
(g4
(S'S1'
I0
I1
tRp377
(I3
S'|'
NNNI1
I1
I0
tbS'0'
tRp378
sS'/home/postma/In_progress/mfs_classifier/resources/wsd_corpora/semeval2015_task13_en/3.naf---t379'
p379
g3
(g4
(S'S1'
I0
I1
tRp380
(I3
S'|'
NNNI1
I1
I0
tbS'1'
tRp381
sS'/home/postma/In_progress/mfs_classifier/resources/wsd_corpora/semeval2015_task13_en/1.naf---t163'
p382
g3
(g4
(S'S1'
I0
I1
tRp383
(I3
S'|'
NNNI1
I1
I0
tbS'0'
tRp384
sS'/home/postma/In_progress/mfs_classifier/resources/wsd_corpora/semeval2015_task13_en/1.naf---t161'
p385
g3
(g4
(S'S1'
I0
I1
tRp386
(I3
S'|'
NNNI1
I1
I0
tbS'1'
tRp387
sS'/home/postma/In_progress/mfs_classifier/resources/wsd_corpora/semeval2015_task13_en/2.naf---t552'
p388
g3
(g4
(S'S1'
I0
I1
tRp389
(I3
S'|'
NNNI1
I1
I0
tbS'1'
tRp390
sS'/home/postma/In_progress/mfs_classifier/resources/wsd_corpora/semeval2015_task13_en/2.naf---t550'
p391
g3
(g4
(S'S1'
I0
I1
tRp392
(I3
S'|'
NNNI1
I1
I0
tbS'0'
tRp393
sS'/home/postma/In_progress/mfs_classifier/resources/wsd_corpora/semeval2015_task13_en/2.naf---t557'
p394
g3
(g4
(S'S1'
I0
I1
tRp395
(I3
S'|'
NNNI1
I1
I0
tbS'0'
tRp396
sS'/home/postma/In_progress/mfs_classifier/resources/wsd_corpora/semeval2015_task13_en/2.naf---t259'
p397
g3
(g4
(S'S1'
I0
I1
tRp398
(I3
S'|'
NNNI1
I1
I0
tbS'1'
tRp399
sS'/home/postma/In_progress/mfs_classifier/resources/wsd_corpora/semeval2015_task13_en/3.naf---t329'
p400
g3
(g4
(S'S1'
I0
I1
tRp401
(I3
S'|'
NNNI1
I1
I0
tbS'1'
tRp402
sS'/home/postma/In_progress/mfs_classifier/resources/wsd_corpora/semeval2015_task13_en/2.naf---t554'
p403
g3
(g4
(S'S1'
I0
I1
tRp404
(I3
S'|'
NNNI1
I1
I0
tbS'1'
tRp405
sS'/home/postma/In_progress/mfs_classifier/resources/wsd_corpora/semeval2015_task13_en/3.naf---t327'
p406
g3
(g4
(S'S1'
I0
I1
tRp407
(I3
S'|'
NNNI1
I1
I0
tbS'1'
tRp408
sS'/home/postma/In_progress/mfs_classifier/resources/wsd_corpora/semeval2015_task13_en/3.naf---t326'
p409
g3
(g4
(S'S1'
I0
I1
tRp410
(I3
S'|'
NNNI1
I1
I0
tbS'1'
tRp411
sS'/home/postma/In_progress/mfs_classifier/resources/wsd_corpora/semeval2015_task13_en/2.naf---t559'
p412
g3
(g4
(S'S1'
I0
I1
tRp413
(I3
S'|'
NNNI1
I1
I0
tbS'1'
tRp414
sS'/home/postma/In_progress/mfs_classifier/resources/wsd_corpora/semeval2015_task13_en/3.naf---t322'
p415
g3
(g4
(S'S1'
I0
I1
tRp416
(I3
S'|'
NNNI1
I1
I0
tbS'1'
tRp417
sS'/home/postma/In_progress/mfs_classifier/resources/wsd_corpora/semeval2015_task13_en/2.naf---t252'
p418
g3
(g4
(S'S1'
I0
I1
tRp419
(I3
S'|'
NNNI1
I1
I0
tbS'1'
tRp420
sS'/home/postma/In_progress/mfs_classifier/resources/wsd_corpora/semeval2015_task13_en/3.naf---t320'
p421
g3
(g4
(S'S1'
I0
I1
tRp422
(I3
S'|'
NNNI1
I1
I0
tbS'1'
tRp423
sS'/home/postma/In_progress/mfs_classifier/resources/wsd_corpora/semeval2015_task13_en/2.naf---t528'
p424
g3
(g4
(S'S1'
I0
I1
tRp425
(I3
S'|'
NNNI1
I1
I0
tbS'1'
tRp426
sS'/home/postma/In_progress/mfs_classifier/resources/wsd_corpora/semeval2015_task13_en/1.naf---t73'
p427
g3
(g4
(S'S1'
I0
I1
tRp428
(I3
S'|'
NNNI1
I1
I0
tbS'1'
tRp429
sS'/home/postma/In_progress/mfs_classifier/resources/wsd_corpora/semeval2015_task13_en/1.naf---t71'
p430
g3
(g4
(S'S1'
I0
I1
tRp431
(I3
S'|'
NNNI1
I1
I0
tbS'1'
tRp432
sS'/home/postma/In_progress/mfs_classifier/resources/wsd_corpora/semeval2015_task13_en/1.naf---t79'
p433
g3
(g4
(S'S1'
I0
I1
tRp434
(I3
S'|'
NNNI1
I1
I0
tbS'1'
tRp435
sS'/home/postma/In_progress/mfs_classifier/resources/wsd_corpora/semeval2015_task13_en/1.naf---t780'
p436
g3
(g4
(S'S1'
I0
I1
tRp437
(I3
S'|'
NNNI1
I1
I0
tbS'1'
tRp438
sS'/home/postma/In_progress/mfs_classifier/resources/wsd_corpora/semeval2015_task13_en/1.naf---t787'
p439
g3
(g4
(S'S1'
I0
I1
tRp440
(I3
S'|'
NNNI1
I1
I0
tbS'1'
tRp441
sS'/home/postma/In_progress/mfs_classifier/resources/wsd_corpora/semeval2015_task13_en/3.naf---t487'
p442
g3
(g4
(S'S1'
I0
I1
tRp443
(I3
S'|'
NNNI1
I1
I0
tbS'1'
tRp444
sS'/home/postma/In_progress/mfs_classifier/resources/wsd_corpora/semeval2015_task13_en/3.naf---t484'
p445
g3
(g4
(S'S1'
I0
I1
tRp446
(I3
S'|'
NNNI1
I1
I0
tbS'1'
tRp447
sS'/home/postma/In_progress/mfs_classifier/resources/wsd_corpora/semeval2015_task13_en/1.naf---t784'
p448
g3
(g4
(S'S1'
I0
I1
tRp449
(I3
S'|'
NNNI1
I1
I0
tbS'1'
tRp450
sS'/home/postma/In_progress/mfs_classifier/resources/wsd_corpora/semeval2015_task13_en/1.naf---t626'
p451
g3
(g4
(S'S1'
I0
I1
tRp452
(I3
S'|'
NNNI1
I1
I0
tbS'0'
tRp453
sS'/home/postma/In_progress/mfs_classifier/resources/wsd_corpora/semeval2015_task13_en/1.naf---t690'
p454
g3
(g4
(S'S1'
I0
I1
tRp455
(I3
S'|'
NNNI1
I1
I0
tbS'1'
tRp456
sS'/home/postma/In_progress/mfs_classifier/resources/wsd_corpora/semeval2015_task13_en/2.naf---t6'
p457
g3
(g4
(S'S1'
I0
I1
tRp458
(I3
S'|'
NNNI1
I1
I0
tbS'1'
tRp459
sS'/home/postma/In_progress/mfs_classifier/resources/wsd_corpora/semeval2015_task13_en/3.naf---t360'
p460
g3
(g4
(S'S1'
I0
I1
tRp461
(I3
S'|'
NNNI1
I1
I0
tbS'1'
tRp462
sS'/home/postma/In_progress/mfs_classifier/resources/wsd_corpora/semeval2015_task13_en/4.naf---t414'
p463
g3
(g4
(S'S1'
I0
I1
tRp464
(I3
S'|'
NNNI1
I1
I0
tbS'1'
tRp465
sS'/home/postma/In_progress/mfs_classifier/resources/wsd_corpora/semeval2015_task13_en/4.naf---t415'
p466
g3
(g4
(S'S1'
I0
I1
tRp467
(I3
S'|'
NNNI1
I1
I0
tbS'1'
tRp468
sS'/home/postma/In_progress/mfs_classifier/resources/wsd_corpora/semeval2015_task13_en/4.naf---t417'
p469
g3
(g4
(S'S1'
I0
I1
tRp470
(I3
S'|'
NNNI1
I1
I0
tbS'1'
tRp471
sS'/home/postma/In_progress/mfs_classifier/resources/wsd_corpora/semeval2015_task13_en/4.naf---t410'
p472
g3
(g4
(S'S1'
I0
I1
tRp473
(I3
S'|'
NNNI1
I1
I0
tbS'1'
tRp474
sS'/home/postma/In_progress/mfs_classifier/resources/wsd_corpora/semeval2015_task13_en/4.naf---t411'
p475
g3
(g4
(S'S1'
I0
I1
tRp476
(I3
S'|'
NNNI1
I1
I0
tbS'1'
tRp477
sS'/home/postma/In_progress/mfs_classifier/resources/wsd_corpora/semeval2015_task13_en/4.naf---t412'
p478
g3
(g4
(S'S1'
I0
I1
tRp479
(I3
S'|'
NNNI1
I1
I0
tbS'1'
tRp480
sS'/home/postma/In_progress/mfs_classifier/resources/wsd_corpora/semeval2015_task13_en/3.naf---t209'
p481
g3
(g4
(S'S1'
I0
I1
tRp482
(I3
S'|'
NNNI1
I1
I0
tbS'1'
tRp483
sS'/home/postma/In_progress/mfs_classifier/resources/wsd_corpora/semeval2015_task13_en/2.naf---t586'
p484
g3
(g4
(S'S1'
I0
I1
tRp485
(I3
S'|'
NNNI1
I1
I0
tbS'1'
tRp486
sS'/home/postma/In_progress/mfs_classifier/resources/wsd_corpora/semeval2015_task13_en/2.naf---t581'
p487
g3
(g4
(S'S1'
I0
I1
tRp488
(I3
S'|'
NNNI1
I1
I0
tbS'1'
tRp489
sS'/home/postma/In_progress/mfs_classifier/resources/wsd_corpora/semeval2015_task13_en/2.naf---t588'
p490
g3
(g4
(S'S1'
I0
I1
tRp491
(I3
S'|'
NNNI1
I1
I0
tbS'0'
tRp492
sS'/home/postma/In_progress/mfs_classifier/resources/wsd_corpora/semeval2015_task13_en/4.naf---t154'
p493
g3
(g4
(S'S1'
I0
I1
tRp494
(I3
S'|'
NNNI1
I1
I0
tbS'1'
tRp495
sS'/home/postma/In_progress/mfs_classifier/resources/wsd_corpora/semeval2015_task13_en/4.naf---t156'
p496
g3
(g4
(S'S1'
I0
I1
tRp497
(I3
S'|'
NNNI1
I1
I0
tbS'1'
tRp498
sS'/home/postma/In_progress/mfs_classifier/resources/wsd_corpora/semeval2015_task13_en/1.naf---t232'
p499
g3
(g4
(S'S1'
I0
I1
tRp500
(I3
S'|'
NNNI1
I1
I0
tbS'1'
tRp501
sS'/home/postma/In_progress/mfs_classifier/resources/wsd_corpora/semeval2015_task13_en/2.naf---t4'
p502
g3
(g4
(S'S1'
I0
I1
tRp503
(I3
S'|'
NNNI1
I1
I0
tbS'1'
tRp504
sS'/home/postma/In_progress/mfs_classifier/resources/wsd_corpora/semeval2015_task13_en/1.naf---t236'
p505
g3
(g4
(S'S1'
I0
I1
tRp506
(I3
S'|'
NNNI1
I1
I0
tbS'1'
tRp507
sS'/home/postma/In_progress/mfs_classifier/resources/wsd_corpora/semeval2015_task13_en/3.naf---t178'
p508
g3
(g4
(S'S1'
I0
I1
tRp509
(I3
S'|'
NNNI1
I1
I0
tbS'1'
tRp510
sS'/home/postma/In_progress/mfs_classifier/resources/wsd_corpora/semeval2015_task13_en/3.naf---t179'
p511
g3
(g4
(S'S1'
I0
I1
tRp512
(I3
S'|'
NNNI1
I1
I0
tbS'1'
tRp513
sS'/home/postma/In_progress/mfs_classifier/resources/wsd_corpora/semeval2015_task13_en/3.naf---t176'
p514
g3
(g4
(S'S1'
I0
I1
tRp515
(I3
S'|'
NNNI1
I1
I0
tbS'1'
tRp516
sS'/home/postma/In_progress/mfs_classifier/resources/wsd_corpora/semeval2015_task13_en/1.naf---t239'
p517
g3
(g4
(S'S1'
I0
I1
tRp518
(I3
S'|'
NNNI1
I1
I0
tbS'1'
tRp519
sS'/home/postma/In_progress/mfs_classifier/resources/wsd_corpora/semeval2015_task13_en/3.naf---t173'
p520
g3
(g4
(S'S1'
I0
I1
tRp521
(I3
S'|'
NNNI1
I1
I0
tbS'1'
tRp522
sS'/home/postma/In_progress/mfs_classifier/resources/wsd_corpora/semeval2015_task13_en/2.naf---t9'
p523
g3
(g4
(S'S1'
I0
I1
tRp524
(I3
S'|'
NNNI1
I1
I0
tbS'1'
tRp525
sS'/home/postma/In_progress/mfs_classifier/resources/wsd_corpora/semeval2015_task13_en/4.naf---t72'
p526
g3
(g4
(S'S1'
I0
I1
tRp527
(I3
S'|'
NNNI1
I1
I0
tbS'0'
tRp528
sS'/home/postma/In_progress/mfs_classifier/resources/wsd_corpora/semeval2015_task13_en/4.naf---t71'
p529
g3
(g4
(S'S1'
I0
I1
tRp530
(I3
S'|'
NNNI1
I1
I0
tbS'1'
tRp531
sS'/home/postma/In_progress/mfs_classifier/resources/wsd_corpora/semeval2015_task13_en/2.naf---t386'
p532
g3
(g4
(S'S1'
I0
I1
tRp533
(I3
S'|'
NNNI1
I1
I0
tbS'0'
tRp534
sS'/home/postma/In_progress/mfs_classifier/resources/wsd_corpora/semeval2015_task13_en/4.naf---t76'
p535
g3
(g4
(S'S1'
I0
I1
tRp536
(I3
S'|'
NNNI1
I1
I0
tbS'1'
tRp537
sS'/home/postma/In_progress/mfs_classifier/resources/wsd_corpora/semeval2015_task13_en/4.naf---t75'
p538
g3
(g4
(S'S1'
I0
I1
tRp539
(I3
S'|'
NNNI1
I1
I0
tbS'1'
tRp540
sS'/home/postma/In_progress/mfs_classifier/resources/wsd_corpora/semeval2015_task13_en/1.naf---t140'
p541
g3
(g4
(S'S1'
I0
I1
tRp542
(I3
S'|'
NNNI1
I1
I0
tbS'1'
tRp543
sS'/home/postma/In_progress/mfs_classifier/resources/wsd_corpora/semeval2015_task13_en/2.naf---t690'
p544
g3
(g4
(S'S1'
I0
I1
tRp545
(I3
S'|'
NNNI1
I1
I0
tbS'1'
tRp546
sS'/home/postma/In_progress/mfs_classifier/resources/wsd_corpora/semeval2015_task13_en/1.naf---t394'
p547
g3
(g4
(S'S1'
I0
I1
tRp548
(I3
S'|'
NNNI1
I1
I0
tbS'1'
tRp549
sS'/home/postma/In_progress/mfs_classifier/resources/wsd_corpora/semeval2015_task13_en/1.naf---t821'
p550
g3
(g4
(S'S1'
I0
I1
tRp551
(I3
S'|'
NNNI1
I1
I0
tbS'1'
tRp552
sS'/home/postma/In_progress/mfs_classifier/resources/wsd_corpora/semeval2015_task13_en/1.naf---t826'
p553
g3
(g4
(S'S1'
I0
I1
tRp554
(I3
S'|'
NNNI1
I1
I0
tbS'1'
tRp555
sS'/home/postma/In_progress/mfs_classifier/resources/wsd_corpora/semeval2015_task13_en/2.naf---t692'
p556
g3
(g4
(S'S1'
I0
I1
tRp557
(I3
S'|'
NNNI1
I1
I0
tbS'1'
tRp558
sS'/home/postma/In_progress/mfs_classifier/resources/wsd_corpora/semeval2015_task13_en/1.naf---t824'
p559
g3
(g4
(S'S1'
I0
I1
tRp560
(I3
S'|'
NNNI1
I1
I0
tbS'1'
tRp561
sS'/home/postma/In_progress/mfs_classifier/resources/wsd_corpora/semeval2015_task13_en/1.naf---t828'
p562
g3
(g4
(S'S1'
I0
I1
tRp563
(I3
S'|'
NNNI1
I1
I0
tbS'1'
tRp564
sS'/home/postma/In_progress/mfs_classifier/resources/wsd_corpora/semeval2015_task13_en/1.naf---t829'
p565
g3
(g4
(S'S1'
I0
I1
tRp566
(I3
S'|'
NNNI1
I1
I0
tbS'1'
tRp567
sS'/home/postma/In_progress/mfs_classifier/resources/wsd_corpora/semeval2015_task13_en/1.naf---t398'
p568
g3
(g4
(S'S1'
I0
I1
tRp569
(I3
S'|'
NNNI1
I1
I0
tbS'1'
tRp570
sS'/home/postma/In_progress/mfs_classifier/resources/wsd_corpora/semeval2015_task13_en/4.naf---t86'
p571
g3
(g4
(S'S1'
I0
I1
tRp572
(I3
S'|'
NNNI1
I1
I0
tbS'0'
tRp573
sS'/home/postma/In_progress/mfs_classifier/resources/wsd_corpora/semeval2015_task13_en/4.naf---t84'
p574
g3
(g4
(S'S1'
I0
I1
tRp575
(I3
S'|'
NNNI1
I1
I0
tbS'1'
tRp576
sS'/home/postma/In_progress/mfs_classifier/resources/wsd_corpora/semeval2015_task13_en/1.naf---t496'
p577
g3
(g4
(S'S1'
I0
I1
tRp578
(I3
S'|'
NNNI1
I1
I0
tbS'1'
tRp579
sS'/home/postma/In_progress/mfs_classifier/resources/wsd_corpora/semeval2015_task13_en/2.naf---t145'
p580
g3
(g4
(S'S1'
I0
I1
tRp581
(I3
S'|'
NNNI1
I1
I0
tbS'1'
tRp582
sS'/home/postma/In_progress/mfs_classifier/resources/wsd_corpora/semeval2015_task13_en/3.naf---t431'
p583
g3
(g4
(S'S1'
I0
I1
tRp584
(I3
S'|'
NNNI1
I1
I0
tbS'1'
tRp585
sS'/home/postma/In_progress/mfs_classifier/resources/wsd_corpora/semeval2015_task13_en/2.naf---t676'
p586
g3
(g4
(S'S1'
I0
I1
tRp587
(I3
S'|'
NNNI1
I1
I0
tbS'1'
tRp588
sS'/home/postma/In_progress/mfs_classifier/resources/wsd_corpora/semeval2015_task13_en/1.naf---t711'
p589
g3
(g4
(S'S1'
I0
I1
tRp590
(I3
S'|'
NNNI1
I1
I0
tbS'1'
tRp591
sS'/home/postma/In_progress/mfs_classifier/resources/wsd_corpora/semeval2015_task13_en/2.naf---t674'
p592
g3
(g4
(S'S1'
I0
I1
tRp593
(I3
S'|'
NNNI1
I1
I0
tbS'1'
tRp594
sS'/home/postma/In_progress/mfs_classifier/resources/wsd_corpora/semeval2015_task13_en/1.naf---t713'
p595
g3
(g4
(S'S1'
I0
I1
tRp596
(I3
S'|'
NNNI1
I1
I0
tbS'1'
tRp597
sS'/home/postma/In_progress/mfs_classifier/resources/wsd_corpora/semeval2015_task13_en/2.naf---t148'
p598
g3
(g4
(S'S1'
I0
I1
tRp599
(I3
S'|'
NNNI1
I1
I0
tbS'1'
tRp600
sS'/home/postma/In_progress/mfs_classifier/resources/wsd_corpora/semeval2015_task13_en/1.naf---t716'
p601
g3
(g4
(S'S1'
I0
I1
tRp602
(I3
S'|'
NNNI1
I1
I0
tbS'1'
tRp603
sS'/home/postma/In_progress/mfs_classifier/resources/wsd_corpora/semeval2015_task13_en/2.naf---t203'
p604
g3
(g4
(S'S1'
I0
I1
tRp605
(I3
S'|'
NNNI1
I1
I0
tbS'1'
tRp606
sS'/home/postma/In_progress/mfs_classifier/resources/wsd_corpora/semeval2015_task13_en/3.naf---t357'
p607
g3
(g4
(S'S1'
I0
I1
tRp608
(I3
S'|'
NNNI1
I1
I0
tbS'1'
tRp609
sS'/home/postma/In_progress/mfs_classifier/resources/wsd_corpora/semeval2015_task13_en/3.naf---t354'
p610
g3
(g4
(S'S1'
I0
I1
tRp611
(I3
S'|'
NNNI1
I1
I0
tbS'1'
tRp612
sS'/home/postma/In_progress/mfs_classifier/resources/wsd_corpora/semeval2015_task13_en/3.naf---t352'
p613
g3
(g4
(S'S1'
I0
I1
tRp614
(I3
S'|'
NNNI1
I1
I0
tbS'1'
tRp615
sS'/home/postma/In_progress/mfs_classifier/resources/wsd_corpora/semeval2015_task13_en/2.naf---t205'
p616
g3
(g4
(S'S1'
I0
I1
tRp617
(I3
S'|'
NNNI1
I1
I0
tbS'0'
tRp618
sS'/home/postma/In_progress/mfs_classifier/resources/wsd_corpora/semeval2015_task13_en/3.naf---t214'
p619
g3
(g4
(S'S1'
I0
I1
tRp620
(I3
S'|'
NNNI1
I1
I0
tbS'1'
tRp621
sS'/home/postma/In_progress/mfs_classifier/resources/wsd_corpora/semeval2015_task13_en/3.naf---t212'
p622
g3
(g4
(S'S1'
I0
I1
tRp623
(I3
S'|'
NNNI1
I1
I0
tbS'1'
tRp624
sS'/home/postma/In_progress/mfs_classifier/resources/wsd_corpora/semeval2015_task13_en/2.naf---t589'
p625
g3
(g4
(S'S1'
I0
I1
tRp626
(I3
S'|'
NNNI1
I1
I0
tbS'1'
tRp627
sS'/home/postma/In_progress/mfs_classifier/resources/wsd_corpora/semeval2015_task13_en/3.naf---t67'
p628
g3
(g4
(S'S1'
I0
I1
tRp629
(I3
S'|'
NNNI1
I1
I0
tbS'1'
tRp630
sS'/home/postma/In_progress/mfs_classifier/resources/wsd_corpora/semeval2015_task13_en/3.naf---t66'
p631
g3
(g4
(S'S1'
I0
I1
tRp632
(I3
S'|'
NNNI1
I1
I0
tbS'1'
tRp633
sS'/home/postma/In_progress/mfs_classifier/resources/wsd_corpora/semeval2015_task13_en/3.naf---t64'
p634
g3
(g4
(S'S1'
I0
I1
tRp635
(I3
S'|'
NNNI1
I1
I0
tbS'1'
tRp636
sS'/home/postma/In_progress/mfs_classifier/resources/wsd_corpora/semeval2015_task13_en/3.naf---t63'
p637
g3
(g4
(S'S1'
I0
I1
tRp638
(I3
S'|'
NNNI1
I1
I0
tbS'0'
tRp639
sS'/home/postma/In_progress/mfs_classifier/resources/wsd_corpora/semeval2015_task13_en/3.naf---t61'
p640
g3
(g4
(S'S1'
I0
I1
tRp641
(I3
S'|'
NNNI1
I1
I0
tbS'1'
tRp642
sS'/home/postma/In_progress/mfs_classifier/resources/wsd_corpora/semeval2015_task13_en/3.naf---t12'
p643
g3
(g4
(S'S1'
I0
I1
tRp644
(I3
S'|'
NNNI1
I1
I0
tbS'0'
tRp645
sS'/home/postma/In_progress/mfs_classifier/resources/wsd_corpora/semeval2015_task13_en/1.naf---t126'
p646
g3
(g4
(S'S1'
I0
I1
tRp647
(I3
S'|'
NNNI1
I1
I0
tbS'1'
tRp648
sS'/home/postma/In_progress/mfs_classifier/resources/wsd_corpora/semeval2015_task13_en/3.naf---t10'
p649
g3
(g4
(S'S1'
I0
I1
tRp650
(I3
S'|'
NNNI1
I1
I0
tbS'1'
tRp651
sS'/home/postma/In_progress/mfs_classifier/resources/wsd_corpora/semeval2015_task13_en/4.naf---t404'
p652
g3
(g4
(S'S1'
I0
I1
tRp653
(I3
S'|'
NNNI1
I1
I0
tbS'1'
tRp654
sS'/home/postma/In_progress/mfs_classifier/resources/wsd_corpora/semeval2015_task13_en/3.naf---t16'
p655
g3
(g4
(S'S1'
I0
I1
tRp656
(I3
S'|'
NNNI1
I1
I0
tbS'1'
tRp657
sS'/home/postma/In_progress/mfs_classifier/resources/wsd_corpora/semeval2015_task13_en/2.naf---t249'
p658
g3
(g4
(S'S1'
I0
I1
tRp659
(I3
S'|'
NNNI1
I1
I0
tbS'1'
tRp660
sS'/home/postma/In_progress/mfs_classifier/resources/wsd_corpora/semeval2015_task13_en/1.naf---t49'
p661
g3
(g4
(S'S1'
I0
I1
tRp662
(I3
S'|'
NNNI1
I1
I0
tbS'1'
tRp663
sS'/home/postma/In_progress/mfs_classifier/resources/wsd_corpora/semeval2015_task13_en/1.naf---t48'
p664
g3
(g4
(S'S1'
I0
I1
tRp665
(I3
S'|'
NNNI1
I1
I0
tbS'1'
tRp666
sS'/home/postma/In_progress/mfs_classifier/resources/wsd_corpora/semeval2015_task13_en/1.naf---t407'
p667
g3
(g4
(S'S1'
I0
I1
tRp668
(I3
S'|'
NNNI1
I1
I0
tbS'0'
tRp669
sS'/home/postma/In_progress/mfs_classifier/resources/wsd_corpora/semeval2015_task13_en/1.naf---t42'
p670
g3
(g4
(S'S1'
I0
I1
tRp671
(I3
S'|'
NNNI1
I1
I0
tbS'1'
tRp672
sS'/home/postma/In_progress/mfs_classifier/resources/wsd_corpora/semeval2015_task13_en/1.naf---t129'
p673
g3
(g4
(S'S1'
I0
I1
tRp674
(I3
S'|'
NNNI1
I1
I0
tbS'1'
tRp675
sS'/home/postma/In_progress/mfs_classifier/resources/wsd_corpora/semeval2015_task13_en/1.naf---t128'
p676
g3
(g4
(S'S1'
I0
I1
tRp677
(I3
S'|'
NNNI1
I1
I0
tbS'0'
tRp678
sS'/home/postma/In_progress/mfs_classifier/resources/wsd_corpora/semeval2015_task13_en/1.naf---t230'
p679
g3
(g4
(S'S1'
I0
I1
tRp680
(I3
S'|'
NNNI1
I1
I0
tbS'1'
tRp681
sS'/home/postma/In_progress/mfs_classifier/resources/wsd_corpora/semeval2015_task13_en/3.naf---t219'
p682
g3
(g4
(S'S1'
I0
I1
tRp683
(I3
S'|'
NNNI1
I1
I0
tbS'0'
tRp684
sS'/home/postma/In_progress/mfs_classifier/resources/wsd_corpora/semeval2015_task13_en/1.naf---t540'
p685
g3
(g4
(S'S1'
I0
I1
tRp686
(I3
S'|'
NNNI1
I1
I0
tbS'1'
tRp687
sS'/home/postma/In_progress/mfs_classifier/resources/wsd_corpora/semeval2015_task13_en/1.naf---t438'
p688
g3
(g4
(S'S1'
I0
I1
tRp689
(I3
S'|'
NNNI1
I1
I0
tbS'1'
tRp690
sS'/home/postma/In_progress/mfs_classifier/resources/wsd_corpora/semeval2015_task13_en/2.naf---t455'
p691
g3
(g4
(S'S1'
I0
I1
tRp692
(I3
S'|'
NNNI1
I1
I0
tbS'1'
tRp693
sS'/home/postma/In_progress/mfs_classifier/resources/wsd_corpora/semeval2015_task13_en/1.naf---t534'
p694
g3
(g4
(S'S1'
I0
I1
tRp695
(I3
S'|'
NNNI1
I1
I0
tbS'0'
tRp696
sS'/home/postma/In_progress/mfs_classifier/resources/wsd_corpora/semeval2015_task13_en/1.naf---t536'
p697
g3
(g4
(S'S1'
I0
I1
tRp698
(I3
S'|'
NNNI1
I1
I0
tbS'0'
tRp699
sS'/home/postma/In_progress/mfs_classifier/resources/wsd_corpora/semeval2015_task13_en/2.naf---t451'
p700
g3
(g4
(S'S1'
I0
I1
tRp701
(I3
S'|'
NNNI1
I1
I0
tbS'1'
tRp702
sS'/home/postma/In_progress/mfs_classifier/resources/wsd_corpora/semeval2015_task13_en/1.naf---t431'
p703
g3
(g4
(S'S1'
I0
I1
tRp704
(I3
S'|'
NNNI1
I1
I0
tbS'1'
tRp705
sS'/home/postma/In_progress/mfs_classifier/resources/wsd_corpora/semeval2015_task13_en/3.naf---t415'
p706
g3
(g4
(S'S1'
I0
I1
tRp707
(I3
S'|'
NNNI1
I1
I0
tbS'1'
tRp708
sS'/home/postma/In_progress/mfs_classifier/resources/wsd_corpora/semeval2015_task13_en/1.naf---t433'
p709
g3
(g4
(S'S1'
I0
I1
tRp710
(I3
S'|'
NNNI1
I1
I0
tbS'1'
tRp711
sS'/home/postma/In_progress/mfs_classifier/resources/wsd_corpora/semeval2015_task13_en/1.naf---t437'
p712
g3
(g4
(S'S1'
I0
I1
tRp713
(I3
S'|'
NNNI1
I1
I0
tbS'1'
tRp714
sS'/home/postma/In_progress/mfs_classifier/resources/wsd_corpora/semeval2015_task13_en/1.naf---t436'
p715
g3
(g4
(S'S1'
I0
I1
tRp716
(I3
S'|'
NNNI1
I1
I0
tbS'1'
tRp717
sS'/home/postma/In_progress/mfs_classifier/resources/wsd_corpora/semeval2015_task13_en/4.naf---t250'
p718
g3
(g4
(S'S1'
I0
I1
tRp719
(I3
S'|'
NNNI1
I1
I0
tbS'1'
tRp720
sS'/home/postma/In_progress/mfs_classifier/resources/wsd_corpora/semeval2015_task13_en/4.naf---t251'
p721
g3
(g4
(S'S1'
I0
I1
tRp722
(I3
S'|'
NNNI1
I1
I0
tbS'1'
tRp723
sS'/home/postma/In_progress/mfs_classifier/resources/wsd_corpora/semeval2015_task13_en/4.naf---t255'
p724
g3
(g4
(S'S1'
I0
I1
tRp725
(I3
S'|'
NNNI1
I1
I0
tbS'1'
tRp726
sS'/home/postma/In_progress/mfs_classifier/resources/wsd_corpora/semeval2015_task13_en/4.naf---t392'
p727
g3
(g4
(S'S1'
I0
I1
tRp728
(I3
S'|'
NNNI1
I1
I0
tbS'0'
tRp729
sS'/home/postma/In_progress/mfs_classifier/resources/wsd_corpora/semeval2015_task13_en/4.naf---t395'
p730
g3
(g4
(S'S1'
I0
I1
tRp731
(I3
S'|'
NNNI1
I1
I0
tbS'0'
tRp732
sS'/home/postma/In_progress/mfs_classifier/resources/wsd_corpora/semeval2015_task13_en/4.naf---t394'
p733
g3
(g4
(S'S1'
I0
I1
tRp734
(I3
S'|'
NNNI1
I1
I0
tbS'1'
tRp735
sS'/home/postma/In_progress/mfs_classifier/resources/wsd_corpora/semeval2015_task13_en/4.naf---t326'
p736
g3
(g4
(S'S1'
I0
I1
tRp737
(I3
S'|'
NNNI1
I1
I0
tbS'1'
tRp738
sS'/home/postma/In_progress/mfs_classifier/resources/wsd_corpora/semeval2015_task13_en/3.naf---t285'
p739
g3
(g4
(S'S1'
I0
I1
tRp740
(I3
S'|'
NNNI1
I1
I0
tbS'1'
tRp741
sS'/home/postma/In_progress/mfs_classifier/resources/wsd_corpora/semeval2015_task13_en/3.naf---t287'
p742
g3
(g4
(S'S1'
I0
I1
tRp743
(I3
S'|'
NNNI1
I1
I0
tbS'1'
tRp744
sS'/home/postma/In_progress/mfs_classifier/resources/wsd_corpora/semeval2015_task13_en/4.naf---t322'
p745
g3
(g4
(S'S1'
I0
I1
tRp746
(I3
S'|'
NNNI1
I1
I0
tbS'0'
tRp747
sS'/home/postma/In_progress/mfs_classifier/resources/wsd_corpora/semeval2015_task13_en/3.naf---t282'
p748
g3
(g4
(S'S1'
I0
I1
tRp749
(I3
S'|'
NNNI1
I1
I0
tbS'0'
tRp750
sS'/home/postma/In_progress/mfs_classifier/resources/wsd_corpora/semeval2015_task13_en/3.naf---t283'
p751
g3
(g4
(S'S1'
I0
I1
tRp752
(I3
S'|'
NNNI1
I1
I0
tbS'0'
tRp753
sS'/home/postma/In_progress/mfs_classifier/resources/wsd_corpora/semeval2015_task13_en/4.naf---t329'
p754
g3
(g4
(S'S1'
I0
I1
tRp755
(I3
S'|'
NNNI1
I1
I0
tbS'1'
tRp756
sS'/home/postma/In_progress/mfs_classifier/resources/wsd_corpora/semeval2015_task13_en/4.naf---t124'
p757
g3
(g4
(S'S1'
I0
I1
tRp758
(I3
S'|'
NNNI1
I1
I0
tbS'0'
tRp759
sS'/home/postma/In_progress/mfs_classifier/resources/wsd_corpora/semeval2015_task13_en/1.naf---t38'
p760
g3
(g4
(S'S1'
I0
I1
tRp761
(I3
S'|'
NNNI1
I1
I0
tbS'1'
tRp762
sS'/home/postma/In_progress/mfs_classifier/resources/wsd_corpora/semeval2015_task13_en/3.naf---t170'
p763
g3
(g4
(S'S1'
I0
I1
tRp764
(I3
S'|'
NNNI1
I1
I0
tbS'1'
tRp765
sS'/home/postma/In_progress/mfs_classifier/resources/wsd_corpora/semeval2015_task13_en/2.naf---t290'
p766
g3
(g4
(S'S1'
I0
I1
tRp767
(I3
S'|'
NNNI1
I1
I0
tbS'0'
tRp768
sS'/home/postma/In_progress/mfs_classifier/resources/wsd_corpora/semeval2015_task13_en/1.naf---t33'
p769
g3
(g4
(S'S1'
I0
I1
tRp770
(I3
S'|'
NNNI1
I1
I0
tbS'0'
tRp771
sS'/home/postma/In_progress/mfs_classifier/resources/wsd_corpora/semeval2015_task13_en/1.naf---t30'
p772
g3
(g4
(S'S1'
I0
I1
tRp773
(I3
S'|'
NNNI1
I1
I0
tbS'1'
tRp774
sS'/home/postma/In_progress/mfs_classifier/resources/wsd_corpora/semeval2015_task13_en/2.naf---t293'
p775
g3
(g4
(S'S1'
I0
I1
tRp776
(I3
S'|'
NNNI1
I1
I0
tbS'1'
tRp777
sS'/home/postma/In_progress/mfs_classifier/resources/wsd_corpora/semeval2015_task13_en/1.naf---t36'
p778
g3
(g4
(S'S1'
I0
I1
tRp779
(I3
S'|'
NNNI1
I1
I0
tbS'0'
tRp780
sS'/home/postma/In_progress/mfs_classifier/resources/wsd_corpora/semeval2015_task13_en/2.naf---t579'
p781
g3
(g4
(S'S1'
I0
I1
tRp782
(I3
S'|'
NNNI1
I1
I0
tbS'1'
tRp783
sS'/home/postma/In_progress/mfs_classifier/resources/wsd_corpora/semeval2015_task13_en/2.naf---t119'
p784
g3
(g4
(S'S1'
I0
I1
tRp785
(I3
S'|'
NNNI1
I1
I0
tbS'1'
tRp786
sS'/home/postma/In_progress/mfs_classifier/resources/wsd_corpora/semeval2015_task13_en/4.naf---t29'
p787
g3
(g4
(S'S1'
I0
I1
tRp788
(I3
S'|'
NNNI1
I1
I0
tbS'1'
tRp789
sS'/home/postma/In_progress/mfs_classifier/resources/wsd_corpora/semeval2015_task13_en/3.naf---t446'
p790
g3
(g4
(S'S1'
I0
I1
tRp791
(I3
S'|'
NNNI1
I1
I0
tbS'1'
tRp792
sS'/home/postma/In_progress/mfs_classifier/resources/wsd_corpora/semeval2015_task13_en/2.naf---t112'
p793
g3
(g4
(S'S1'
I0
I1
tRp794
(I3
S'|'
NNNI1
I1
I0
tbS'0'
tRp795
sS'/home/postma/In_progress/mfs_classifier/resources/wsd_corpora/semeval2015_task13_en/3.naf---t445'
p796
g3
(g4
(S'S1'
I0
I1
tRp797
(I3
S'|'
NNNI1
I1
I0
tbS'1'
tRp798
sS'/home/postma/In_progress/mfs_classifier/resources/wsd_corpora/semeval2015_task13_en/4.naf---t20'
p799
g3
(g4
(S'S1'
I0
I1
tRp800
(I3
S'|'
NNNI1
I1
I0
tbS'1'
tRp801
sS'/home/postma/In_progress/mfs_classifier/resources/wsd_corpora/semeval2015_task13_en/3.naf---t443'
p802
g3
(g4
(S'S1'
I0
I1
tRp803
(I3
S'|'
NNNI1
I1
I0
tbS'1'
tRp804
sS'/home/postma/In_progress/mfs_classifier/resources/wsd_corpora/semeval2015_task13_en/2.naf---t115'
p805
g3
(g4
(S'S1'
I0
I1
tRp806
(I3
S'|'
NNNI1
I1
I0
tbS'0'
tRp807
sS'/home/postma/In_progress/mfs_classifier/resources/wsd_corpora/semeval2015_task13_en/3.naf---t441'
p808
g3
(g4
(S'S1'
I0
I1
tRp809
(I3
S'|'
NNNI1
I1
I0
tbS'1'
tRp810
sS'/home/postma/In_progress/mfs_classifier/resources/wsd_corpora/semeval2015_task13_en/2.naf---t670'
p811
g3
(g4
(S'S1'
I0
I1
tRp812
(I3
S'|'
NNNI1
I1
I0
tbS'1'
tRp813
sS'/home/postma/In_progress/mfs_classifier/resources/wsd_corpora/semeval2015_task13_en/2.naf---t114'
p814
g3
(g4
(S'S1'
I0
I1
tRp815
(I3
S'|'
NNNI1
I1
I0
tbS'1'
tRp816
sS'/home/postma/In_progress/mfs_classifier/resources/wsd_corpora/semeval2015_task13_en/1.naf---t581'
p817
g3
(g4
(S'S1'
I0
I1
tRp818
(I3
S'|'
NNNI1
I1
I0
tbS'1'
tRp819
sS'/home/postma/In_progress/mfs_classifier/resources/wsd_corpora/semeval2015_task13_en/3.naf---t138'
p820
g3
(g4
(S'S1'
I0
I1
tRp821
(I3
S'|'
NNNI1
I1
I0
tbS'1'
tRp822
sS'/home/postma/In_progress/mfs_classifier/resources/wsd_corpora/semeval2015_task13_en/2.naf---t99'
p823
g3
(g4
(S'S1'
I0
I1
tRp824
(I3
S'|'
NNNI1
I1
I0
tbS'1'
tRp825
sS'/home/postma/In_progress/mfs_classifier/resources/wsd_corpora/semeval2015_task13_en/1.naf---t586'
p826
g3
(g4
(S'S1'
I0
I1
tRp827
(I3
S'|'
NNNI1
I1
I0
tbS'1'
tRp828
sS'/home/postma/In_progress/mfs_classifier/resources/wsd_corpora/semeval2015_task13_en/1.naf---t589'
p829
g3
(g4
(S'S1'
I0
I1
tRp830
(I3
S'|'
NNNI1
I1
I0
tbS'1'
tRp831
sS'/home/postma/In_progress/mfs_classifier/resources/wsd_corpora/semeval2015_task13_en/3.naf---t133'
p832
g3
(g4
(S'S1'
I0
I1
tRp833
(I3
S'|'
NNNI1
I1
I0
tbS'1'
tRp834
sS'/home/postma/In_progress/mfs_classifier/resources/wsd_corpora/semeval2015_task13_en/3.naf---t130'
p835
g3
(g4
(S'S1'
I0
I1
tRp836
(I3
S'|'
NNNI1
I1
I0
tbS'1'
tRp837
sS'/home/postma/In_progress/mfs_classifier/resources/wsd_corpora/semeval2015_task13_en/3.naf---t137'
p838
g3
(g4
(S'S1'
I0
I1
tRp839
(I3
S'|'
NNNI1
I1
I0
tbS'1'
tRp840
sS'/home/postma/In_progress/mfs_classifier/resources/wsd_corpora/semeval2015_task13_en/3.naf---t135'
p841
g3
(g4
(S'S1'
I0
I1
tRp842
(I3
S'|'
NNNI1
I1
I0
tbS'1'
tRp843
sS'/home/postma/In_progress/mfs_classifier/resources/wsd_corpora/semeval2015_task13_en/4.naf---t9'
p844
g3
(g4
(S'S1'
I0
I1
tRp845
(I3
S'|'
NNNI1
I1
I0
tbS'1'
tRp846
sS'/home/postma/In_progress/mfs_classifier/resources/wsd_corpora/semeval2015_task13_en/1.naf---t373'
p847
g3
(g4
(S'S1'
I0
I1
tRp848
(I3
S'|'
NNNI1
I1
I0
tbS'1'
tRp849
sS'/home/postma/In_progress/mfs_classifier/resources/wsd_corpora/semeval2015_task13_en/1.naf---t279'
p850
g3
(g4
(S'S1'
I0
I1
tRp851
(I3
S'|'
NNNI1
I1
I0
tbS'1'
tRp852
sS'/home/postma/In_progress/mfs_classifier/resources/wsd_corpora/semeval2015_task13_en/3.naf---t447'
p853
g3
(g4
(S'S1'
I0
I1
tRp854
(I3
S'|'
NNNI1
I1
I0
tbS'1'
tRp855
sS'/home/postma/In_progress/mfs_classifier/resources/wsd_corpora/semeval2015_task13_en/1.naf---t277'
p856
g3
(g4
(S'S1'
I0
I1
tRp857
(I3
S'|'
NNNI1
I1
I0
tbS'1'
tRp858
sS'/home/postma/In_progress/mfs_classifier/resources/wsd_corpora/semeval2015_task13_en/2.naf---t707'
p859
g3
(g4
(S'S1'
I0
I1
tRp860
(I3
S'|'
NNNI1
I1
I0
tbS'1'
tRp861
sS'/home/postma/In_progress/mfs_classifier/resources/wsd_corpora/semeval2015_task13_en/1.naf---t275'
p862
g3
(g4
(S'S1'
I0
I1
tRp863
(I3
S'|'
NNNI1
I1
I0
tbS'0'
tRp864
sS'/home/postma/In_progress/mfs_classifier/resources/wsd_corpora/semeval2015_task13_en/1.naf---t272'
p865
g3
(g4
(S'S1'
I0
I1
tRp866
(I3
S'|'
NNNI1
I1
I0
tbS'1'
tRp867
sS'/home/postma/In_progress/mfs_classifier/resources/wsd_corpora/semeval2015_task13_en/1.naf---t378'
p868
g3
(g4
(S'S1'
I0
I1
tRp869
(I3
S'|'
NNNI1
I1
I0
tbS'0'
tRp870
sS'/home/postma/In_progress/mfs_classifier/resources/wsd_corpora/semeval2015_task13_en/3.naf---t560'
p871
g3
(g4
(S'S1'
I0
I1
tRp872
(I3
S'|'
NNNI1
I1
I0
tbS'0'
tRp873
sS'/home/postma/In_progress/mfs_classifier/resources/wsd_corpora/semeval2015_task13_en/3.naf---t503'
p874
g3
(g4
(S'S1'
I0
I1
tRp875
(I3
S'|'
NNNI1
I1
I0
tbS'1'
tRp876
sS'/home/postma/In_progress/mfs_classifier/resources/wsd_corpora/semeval2015_task13_en/3.naf---t500'
p877
g3
(g4
(S'S1'
I0
I1
tRp878
(I3
S'|'
NNNI1
I1
I0
tbS'1'
tRp879
sS'/home/postma/In_progress/mfs_classifier/resources/wsd_corpora/semeval2015_task13_en/3.naf---t505'
p880
g3
(g4
(S'S1'
I0
I1
tRp881
(I3
S'|'
NNNI1
I1
I0
tbS'1'
tRp882
sS'/home/postma/In_progress/mfs_classifier/resources/wsd_corpora/semeval2015_task13_en/2.naf---t349'
p883
g3
(g4
(S'S1'
I0
I1
tRp884
(I3
S'|'
NNNI1
I1
I0
tbS'1'
tRp885
sS'/home/postma/In_progress/mfs_classifier/resources/wsd_corpora/semeval2015_task13_en/2.naf---t346'
p886
g3
(g4
(S'S1'
I0
I1
tRp887
(I3
S'|'
NNNI1
I1
I0
tbS'1'
tRp888
sS'/home/postma/In_progress/mfs_classifier/resources/wsd_corpora/semeval2015_task13_en/3.naf---t509'
p889
g3
(g4
(S'S1'
I0
I1
tRp890
(I3
S'|'
NNNI1
I1
I0
tbS'1'
tRp891
sS'/home/postma/In_progress/mfs_classifier/resources/wsd_corpora/semeval2015_task13_en/2.naf---t343'
p892
g3
(g4
(S'S1'
I0
I1
tRp893
(I3
S'|'
NNNI1
I1
I0
tbS'1'
tRp894
sS'/home/postma/In_progress/mfs_classifier/resources/wsd_corpora/semeval2015_task13_en/2.naf---t341'
p895
g3
(g4
(S'S1'
I0
I1
tRp896
(I3
S'|'
NNNI1
I1
I0
tbS'0'
tRp897
sS'/home/postma/In_progress/mfs_classifier/resources/wsd_corpora/semeval2015_task13_en/2.naf---t273'
p898
g3
(g4
(S'S1'
I0
I1
tRp899
(I3
S'|'
NNNI1
I1
I0
tbS'1'
tRp900
sS'/home/postma/In_progress/mfs_classifier/resources/wsd_corpora/semeval2015_task13_en/3.naf---t410'
p901
g3
(g4
(S'S1'
I0
I1
tRp902
(I3
S'|'
NNNI1
I1
I0
tbS'1'
tRp903
sS'/home/postma/In_progress/mfs_classifier/resources/wsd_corpora/semeval2015_task13_en/1.naf---t754'
p904
g3
(g4
(S'S1'
I0
I1
tRp905
(I3
S'|'
NNNI1
I1
I0
tbS'1'
tRp906
sS'/home/postma/In_progress/mfs_classifier/resources/wsd_corpora/semeval2015_task13_en/1.naf---t699'
p907
g3
(g4
(S'S1'
I0
I1
tRp908
(I3
S'|'
NNNI1
I1
I0
tbS'1'
tRp909
sS'/home/postma/In_progress/mfs_classifier/resources/wsd_corpora/semeval2015_task13_en/1.naf---t698'
p910
g3
(g4
(S'S1'
I0
I1
tRp911
(I3
S'|'
NNNI1
I1
I0
tbS'1'
tRp912
sS'/home/postma/In_progress/mfs_classifier/resources/wsd_corpora/semeval2015_task13_en/1.naf---t752'
p913
g3
(g4
(S'S1'
I0
I1
tRp914
(I3
S'|'
NNNI1
I1
I0
tbS'1'
tRp915
sS'/home/postma/In_progress/mfs_classifier/resources/wsd_corpora/semeval2015_task13_en/2.naf---t630'
p916
g3
(g4
(S'S1'
I0
I1
tRp917
(I3
S'|'
NNNI1
I1
I0
tbS'1'
tRp918
sS'/home/postma/In_progress/mfs_classifier/resources/wsd_corpora/semeval2015_task13_en/1.naf---t696'
p919
g3
(g4
(S'S1'
I0
I1
tRp920
(I3
S'|'
NNNI1
I1
I0
tbS'1'
tRp921
sS'/home/postma/In_progress/mfs_classifier/resources/wsd_corpora/semeval2015_task13_en/1.naf---t691'
p922
g3
(g4
(S'S1'
I0
I1
tRp923
(I3
S'|'
NNNI1
I1
I0
tbS'0'
tRp924
sS'/home/postma/In_progress/mfs_classifier/resources/wsd_corpora/semeval2015_task13_en/1.naf---t759'
p925
g3
(g4
(S'S1'
I0
I1
tRp926
(I3
S'|'
NNNI1
I1
I0
tbS'0'
tRp927
sS'/home/postma/In_progress/mfs_classifier/resources/wsd_corpora/semeval2015_task13_en/1.naf---t693'
p928
g3
(g4
(S'S1'
I0
I1
tRp929
(I3
S'|'
NNNI1
I1
I0
tbS'1'
tRp930
sS'/home/postma/In_progress/mfs_classifier/resources/wsd_corpora/semeval2015_task13_en/1.naf---t190'
p931
g3
(g4
(S'S1'
I0
I1
tRp932
(I3
S'|'
NNNI1
I1
I0
tbS'1'
tRp933
sS'/home/postma/In_progress/mfs_classifier/resources/wsd_corpora/semeval2015_task13_en/1.naf---t196'
p934
g3
(g4
(S'S1'
I0
I1
tRp935
(I3
S'|'
NNNI1
I1
I0
tbS'0'
tRp936
sS'/home/postma/In_progress/mfs_classifier/resources/wsd_corpora/semeval2015_task13_en/1.naf---t843'
p937
g3
(g4
(S'S1'
I0
I1
tRp938
(I3
S'|'
NNNI1
I1
I0
tbS'1'
tRp939
sS'/home/postma/In_progress/mfs_classifier/resources/wsd_corpora/semeval2015_task13_en/1.naf---t827'
p940
g3
(g4
(S'S1'
I0
I1
tRp941
(I3
S'|'
NNNI1
I1
I0
tbS'1'
tRp942
sS'/home/postma/In_progress/mfs_classifier/resources/wsd_corpora/semeval2015_task13_en/4.naf---t439'
p943
g3
(g4
(S'S1'
I0
I1
tRp944
(I3
S'|'
NNNI1
I1
I0
tbS'1'
tRp945
sS'/home/postma/In_progress/mfs_classifier/resources/wsd_corpora/semeval2015_task13_en/1.naf---t401'
p946
g3
(g4
(S'S1'
I0
I1
tRp947
(I3
S'|'
NNNI1
I1
I0
tbS'1'
tRp948
sS'/home/postma/In_progress/mfs_classifier/resources/wsd_corpora/semeval2015_task13_en/1.naf---t402'
p949
g3
(g4
(S'S1'
I0
I1
tRp950
(I3
S'|'
NNNI1
I1
I0
tbS'1'
tRp951
sS'/home/postma/In_progress/mfs_classifier/resources/wsd_corpora/semeval2015_task13_en/2.naf---t565'
p952
g3
(g4
(S'S1'
I0
I1
tRp953
(I3
S'|'
NNNI1
I1
I0
tbS'1'
tRp954
sS'/home/postma/In_progress/mfs_classifier/resources/wsd_corpora/semeval2015_task13_en/2.naf---t563'
p955
g3
(g4
(S'S1'
I0
I1
tRp956
(I3
S'|'
NNNI1
I1
I0
tbS'1'
tRp957
sS'/home/postma/In_progress/mfs_classifier/resources/wsd_corpora/semeval2015_task13_en/2.naf---t560'
p958
g3
(g4
(S'S1'
I0
I1
tRp959
(I3
S'|'
NNNI1
I1
I0
tbS'1'
tRp960
sS'/home/postma/In_progress/mfs_classifier/resources/wsd_corpora/semeval2015_task13_en/2.naf---t561'
p961
g3
(g4
(S'S1'
I0
I1
tRp962
(I3
S'|'
NNNI1
I1
I0
tbS'1'
tRp963
sS'/home/postma/In_progress/mfs_classifier/resources/wsd_corpora/semeval2015_task13_en/1.naf---t408'
p964
g3
(g4
(S'S1'
I0
I1
tRp965
(I3
S'|'
NNNI1
I1
I0
tbS'1'
tRp966
sS'/home/postma/In_progress/mfs_classifier/resources/wsd_corpora/semeval2015_task13_en/2.naf---t246'
p967
g3
(g4
(S'S1'
I0
I1
tRp968
(I3
S'|'
NNNI1
I1
I0
tbS'1'
tRp969
sS'/home/postma/In_progress/mfs_classifier/resources/wsd_corpora/semeval2015_task13_en/2.naf---t244'
p970
g3
(g4
(S'S1'
I0
I1
tRp971
(I3
S'|'
NNNI1
I1
I0
tbS'1'
tRp972
sS'/home/postma/In_progress/mfs_classifier/resources/wsd_corpora/semeval2015_task13_en/2.naf---t568'
p973
g3
(g4
(S'S1'
I0
I1
tRp974
(I3
S'|'
NNNI1
I1
I0
tbS'1'
tRp975
sS'/home/postma/In_progress/mfs_classifier/resources/wsd_corpora/semeval2015_task13_en/4.naf---t360'
p976
g3
(g4
(S'S1'
I0
I1
tRp977
(I3
S'|'
NNNI1
I1
I0
tbS'0'
tRp978
sS'/home/postma/In_progress/mfs_classifier/resources/wsd_corpora/semeval2015_task13_en/4.naf---t366'
p979
g3
(g4
(S'S1'
I0
I1
tRp980
(I3
S'|'
NNNI1
I1
I0
tbS'1'
tRp981
sS'/home/postma/In_progress/mfs_classifier/resources/wsd_corpora/semeval2015_task13_en/4.naf---t364'
p982
g3
(g4
(S'S1'
I0
I1
tRp983
(I3
S'|'
NNNI1
I1
I0
tbS'1'
tRp984
sS'/home/postma/In_progress/mfs_classifier/resources/wsd_corpora/semeval2015_task13_en/1.naf---t54'
p985
g3
(g4
(S'S1'
I0
I1
tRp986
(I3
S'|'
NNNI1
I1
I0
tbS'1'
tRp987
sS'/home/postma/In_progress/mfs_classifier/resources/wsd_corpora/semeval2015_task13_en/4.naf---t368'
p988
g3
(g4
(S'S1'
I0
I1
tRp989
(I3
S'|'
NNNI1
I1
I0
tbS'1'
tRp990
sS'/home/postma/In_progress/mfs_classifier/resources/wsd_corpora/semeval2015_task13_en/3.naf---t425'
p991
g3
(g4
(S'S1'
I0
I1
tRp992
(I3
S'|'
NNNI1
I1
I0
tbS'0'
tRp993
sS'/home/postma/In_progress/mfs_classifier/resources/wsd_corpora/semeval2015_task13_en/1.naf---t9'
p994
g3
(g4
(S'S1'
I0
I1
tRp995
(I3
S'|'
NNNI1
I1
I0
tbS'1'
tRp996
sS'/home/postma/In_progress/mfs_classifier/resources/wsd_corpora/semeval2015_task13_en/3.naf---t313'
p997
g3
(g4
(S'S1'
I0
I1
tRp998
(I3
S'|'
NNNI1
I1
I0
tbS'1'
tRp999
sS'/home/postma/In_progress/mfs_classifier/resources/wsd_corpora/semeval2015_task13_en/1.naf---t500'
p1000
g3
(g4
(S'S1'
I0
I1
tRp1001
(I3
S'|'
NNNI1
I1
I0
tbS'1'
tRp1002
sS'/home/postma/In_progress/mfs_classifier/resources/wsd_corpora/semeval2015_task13_en/2.naf---t135'
p1003
g3
(g4
(S'S1'
I0
I1
tRp1004
(I3
S'|'
NNNI1
I1
I0
tbS'1'
tRp1005
sS'/home/postma/In_progress/mfs_classifier/resources/wsd_corpora/semeval2015_task13_en/2.naf---t87'
p1006
g3
(g4
(S'S1'
I0
I1
tRp1007
(I3
S'|'
NNNI1
I1
I0
tbS'1'
tRp1008
sS'/home/postma/In_progress/mfs_classifier/resources/wsd_corpora/semeval2015_task13_en/1.naf---t671'
p1009
g3
(g4
(S'S1'
I0
I1
tRp1010
(I3
S'|'
NNNI1
I1
I0
tbS'1'
tRp1011
sS'/home/postma/In_progress/mfs_classifier/resources/wsd_corpora/semeval2015_task13_en/1.naf---t675'
p1012
g3
(g4
(S'S1'
I0
I1
tRp1013
(I3
S'|'
NNNI1
I1
I0
tbS'1'
tRp1014
sS'/home/postma/In_progress/mfs_classifier/resources/wsd_corpora/semeval2015_task13_en/4.naf---t301'
p1015
g3
(g4
(S'S1'
I0
I1
tRp1016
(I3
S'|'
NNNI1
I1
I0
tbS'0'
tRp1017
sS'/home/postma/In_progress/mfs_classifier/resources/wsd_corpora/semeval2015_task13_en/1.naf---t574'
p1018
g3
(g4
(S'S1'
I0
I1
tRp1019
(I3
S'|'
NNNI1
I1
I0
tbS'1'
tRp1020
sS'/home/postma/In_progress/mfs_classifier/resources/wsd_corpora/semeval2015_task13_en/1.naf---t679'
p1021
g3
(g4
(S'S1'
I0
I1
tRp1022
(I3
S'|'
NNNI1
I1
I0
tbS'1'
tRp1023
sS'/home/postma/In_progress/mfs_classifier/resources/wsd_corpora/semeval2015_task13_en/1.naf---t577'
p1024
g3
(g4
(S'S1'
I0
I1
tRp1025
(I3
S'|'
NNNI1
I1
I0
tbS'1'
tRp1026
sS'/home/postma/In_progress/mfs_classifier/resources/wsd_corpora/semeval2015_task13_en/1.naf---t570'
p1027
g3
(g4
(S'S1'
I0
I1
tRp1028
(I3
S'|'
NNNI1
I1
I0
tbS'1'
tRp1029
sS'/home/postma/In_progress/mfs_classifier/resources/wsd_corpora/semeval2015_task13_en/1.naf---t573'
p1030
g3
(g4
(S'S1'
I0
I1
tRp1031
(I3
S'|'
NNNI1
I1
I0
tbS'1'
tRp1032
sS'/home/postma/In_progress/mfs_classifier/resources/wsd_corpora/semeval2015_task13_en/2.naf---t643'
p1033
g3
(g4
(S'S1'
I0
I1
tRp1034
(I3
S'|'
NNNI1
I1
I0
tbS'1'
tRp1035
sS'/home/postma/In_progress/mfs_classifier/resources/wsd_corpora/semeval2015_task13_en/4.naf---t441'
p1036
g3
(g4
(S'S1'
I0
I1
tRp1037
(I3
S'|'
NNNI1
I1
I0
tbS'0'
tRp1038
sS'/home/postma/In_progress/mfs_classifier/resources/wsd_corpora/semeval2015_task13_en/4.naf---t447'
p1039
g3
(g4
(S'S1'
I0
I1
tRp1040
(I3
S'|'
NNNI1
I1
I0
tbS'1'
tRp1041
sS'/home/postma/In_progress/mfs_classifier/resources/wsd_corpora/semeval2015_task13_en/4.naf---t112'
p1042
g3
(g4
(S'S1'
I0
I1
tRp1043
(I3
S'|'
NNNI1
I1
I0
tbS'1'
tRp1044
sS'/home/postma/In_progress/mfs_classifier/resources/wsd_corpora/semeval2015_task13_en/4.naf---t297'
p1045
g3
(g4
(S'S1'
I0
I1
tRp1046
(I3
S'|'
NNNI1
I1
I0
tbS'1'
tRp1047
sS'/home/postma/In_progress/mfs_classifier/resources/wsd_corpora/semeval2015_task13_en/4.naf---t295'
p1048
g3
(g4
(S'S1'
I0
I1
tRp1049
(I3
S'|'
NNNI1
I1
I0
tbS'0'
tRp1050
sS'/home/postma/In_progress/mfs_classifier/resources/wsd_corpora/semeval2015_task13_en/4.naf---t292'
p1051
g3
(g4
(S'S1'
I0
I1
tRp1052
(I3
S'|'
NNNI1
I1
I0
tbS'1'
tRp1053
sS'/home/postma/In_progress/mfs_classifier/resources/wsd_corpora/semeval2015_task13_en/4.naf---t118'
p1054
g3
(g4
(S'S1'
I0
I1
tRp1055
(I3
S'|'
NNNI1
I1
I0
tbS'1'
tRp1056
sS'/home/postma/In_progress/mfs_classifier/resources/wsd_corpora/semeval2015_task13_en/4.naf---t290'
p1057
g3
(g4
(S'S1'
I0
I1
tRp1058
(I3
S'|'
NNNI1
I1
I0
tbS'1'
tRp1059
sS'/home/postma/In_progress/mfs_classifier/resources/wsd_corpora/semeval2015_task13_en/4.naf---t208'
p1060
g3
(g4
(S'S1'
I0
I1
tRp1061
(I3
S'|'
NNNI1
I1
I0
tbS'0'
tRp1062
sS'/home/postma/In_progress/mfs_classifier/resources/wsd_corpora/semeval2015_task13_en/2.naf---t640'
p1063
g3
(g4
(S'S1'
I0
I1
tRp1064
(I3
S'|'
NNNI1
I1
I0
tbS'1'
tRp1065
sS'/home/postma/In_progress/mfs_classifier/resources/wsd_corpora/semeval2015_task13_en/4.naf---t164'
p1066
g3
(g4
(S'S1'
I0
I1
tRp1067
(I3
S'|'
NNNI1
I1
I0
tbS'0'
tRp1068
sS'/home/postma/In_progress/mfs_classifier/resources/wsd_corpora/semeval2015_task13_en/4.naf---t167'
p1069
g3
(g4
(S'S1'
I0
I1
tRp1070
(I3
S'|'
NNNI1
I1
I0
tbS'1'
tRp1071
sS'/home/postma/In_progress/mfs_classifier/resources/wsd_corpora/semeval2015_task13_en/4.naf---t169'
p1072
g3
(g4
(S'S1'
I0
I1
tRp1073
(I3
S'|'
NNNI1
I1
I0
tbS'0'
tRp1074
sS'/home/postma/In_progress/mfs_classifier/resources/wsd_corpora/semeval2015_task13_en/2.naf---t44'
p1075
g3
(g4
(S'S1'
I0
I1
tRp1076
(I3
S'|'
NNNI1
I1
I0
tbS'1'
tRp1077
sS'/home/postma/In_progress/mfs_classifier/resources/wsd_corpora/semeval2015_task13_en/4.naf---t204'
p1078
g3
(g4
(S'S1'
I0
I1
tRp1079
(I3
S'|'
NNNI1
I1
I0
tbS'0'
tRp1080
sS'/home/postma/In_progress/mfs_classifier/resources/wsd_corpora/semeval2015_task13_en/2.naf---t413'
p1081
g3
(g4
(S'S1'
I0
I1
tRp1082
(I3
S'|'
NNNI1
I1
I0
tbS'1'
tRp1083
sS'/home/postma/In_progress/mfs_classifier/resources/wsd_corpora/semeval2015_task13_en/2.naf---t190'
p1084
g3
(g4
(S'S1'
I0
I1
tRp1085
(I3
S'|'
NNNI1
I1
I0
tbS'1'
tRp1086
sS'/home/postma/In_progress/mfs_classifier/resources/wsd_corpora/semeval2015_task13_en/4.naf---t106'
p1087
g3
(g4
(S'S1'
I0
I1
tRp1088
(I3
S'|'
NNNI1
I1
I0
tbS'1'
tRp1089
sS'/home/postma/In_progress/mfs_classifier/resources/wsd_corpora/semeval2015_task13_en/4.naf---t60'
p1090
g3
(g4
(S'S1'
I0
I1
tRp1091
(I3
S'|'
NNNI1
I1
I0
tbS'0'
tRp1092
sS'/home/postma/In_progress/mfs_classifier/resources/wsd_corpora/semeval2015_task13_en/2.naf---t397'
p1093
g3
(g4
(S'S1'
I0
I1
tRp1094
(I3
S'|'
NNNI1
I1
I0
tbS'0'
tRp1095
sS'/home/postma/In_progress/mfs_classifier/resources/wsd_corpora/semeval2015_task13_en/2.naf---t391'
p1096
g3
(g4
(S'S1'
I0
I1
tRp1097
(I3
S'|'
NNNI1
I1
I0
tbS'1'
tRp1098
sS'/home/postma/In_progress/mfs_classifier/resources/wsd_corpora/semeval2015_task13_en/4.naf---t65'
p1099
g3
(g4
(S'S1'
I0
I1
tRp1100
(I3
S'|'
NNNI1
I1
I0
tbS'1'
tRp1101
sS'/home/postma/In_progress/mfs_classifier/resources/wsd_corpora/semeval2015_task13_en/2.naf---t393'
p1102
g3
(g4
(S'S1'
I0
I1
tRp1103
(I3
S'|'
NNNI1
I1
I0
tbS'0'
tRp1104
sS'/home/postma/In_progress/mfs_classifier/resources/wsd_corpora/semeval2015_task13_en/4.naf---t69'
p1105
g3
(g4
(S'S1'
I0
I1
tRp1106
(I3
S'|'
NNNI1
I1
I0
tbS'1'
tRp1107
sS'/home/postma/In_progress/mfs_classifier/resources/wsd_corpora/semeval2015_task13_en/2.naf---t18'
p1108
g3
(g4
(S'S1'
I0
I1
tRp1109
(I3
S'|'
NNNI1
I1
I0
tbS'0'
tRp1110
sS'/home/postma/In_progress/mfs_classifier/resources/wsd_corpora/semeval2015_task13_en/1.naf---t2'
p1111
g3
(g4
(S'S1'
I0
I1
tRp1112
(I3
S'|'
NNNI1
I1
I0
tbS'1'
tRp1113
sS'/home/postma/In_progress/mfs_classifier/resources/wsd_corpora/semeval2015_task13_en/1.naf---t385'
p1114
g3
(g4
(S'S1'
I0
I1
tRp1115
(I3
S'|'
NNNI1
I1
I0
tbS'0'
tRp1116
sS'/home/postma/In_progress/mfs_classifier/resources/wsd_corpora/semeval2015_task13_en/1.naf---t326'
p1117
g3
(g4
(S'S1'
I0
I1
tRp1118
(I3
S'|'
NNNI1
I1
I0
tbS'1'
tRp1119
sS'/home/postma/In_progress/mfs_classifier/resources/wsd_corpora/semeval2015_task13_en/1.naf---t830'
p1120
g3
(g4
(S'S1'
I0
I1
tRp1121
(I3
S'|'
NNNI1
I1
I0
tbS'0'
tRp1122
sS'/home/postma/In_progress/mfs_classifier/resources/wsd_corpora/semeval2015_task13_en/2.naf---t661'
p1123
g3
(g4
(S'S1'
I0
I1
tRp1124
(I3
S'|'
NNNI1
I1
I0
tbS'1'
tRp1125
sS'/home/postma/In_progress/mfs_classifier/resources/wsd_corpora/semeval2015_task13_en/1.naf---t333'
p1126
g3
(g4
(S'S1'
I0
I1
tRp1127
(I3
S'|'
NNNI1
I1
I0
tbS'1'
tRp1128
sS'/home/postma/In_progress/mfs_classifier/resources/wsd_corpora/semeval2015_task13_en/2.naf---t663'
p1129
g3
(g4
(S'S1'
I0
I1
tRp1130
(I3
S'|'
NNNI1
I1
I0
tbS'1'
tRp1131
sS'/home/postma/In_progress/mfs_classifier/resources/wsd_corpora/semeval2015_task13_en/1.naf---t331'
p1132
g3
(g4
(S'S1'
I0
I1
tRp1133
(I3
S'|'
NNNI1
I1
I0
tbS'1'
tRp1134
sS'/home/postma/In_progress/mfs_classifier/resources/wsd_corpora/semeval2015_task13_en/1.naf---t845'
p1135
g3
(g4
(S'S1'
I0
I1
tRp1136
(I3
S'|'
NNNI1
I1
I0
tbS'1'
tRp1137
sS'/home/postma/In_progress/mfs_classifier/resources/wsd_corpora/semeval2015_task13_en/1.naf---t847'
p1138
g3
(g4
(S'S1'
I0
I1
tRp1139
(I3
S'|'
NNNI1
I1
I0
tbS'1'
tRp1140
sS'/home/postma/In_progress/mfs_classifier/resources/wsd_corpora/semeval2015_task13_en/2.naf---t669'
p1141
g3
(g4
(S'S1'
I0
I1
tRp1142
(I3
S'|'
NNNI1
I1
I0
tbS'1'
tRp1143
sS'/home/postma/In_progress/mfs_classifier/resources/wsd_corpora/semeval2015_task13_en/1.naf---t849'
p1144
g3
(g4
(S'S1'
I0
I1
tRp1145
(I3
S'|'
NNNI1
I1
I0
tbS'1'
tRp1146
sS'/home/postma/In_progress/mfs_classifier/resources/wsd_corpora/semeval2015_task13_en/1.naf---t338'
p1147
g3
(g4
(S'S1'
I0
I1
tRp1148
(I3
S'|'
NNNI1
I1
I0
tbS'0'
tRp1149
sS'/home/postma/In_progress/mfs_classifier/resources/wsd_corpora/semeval2015_task13_en/1.naf---t339'
p1150
g3
(g4
(S'S1'
I0
I1
tRp1151
(I3
S'|'
NNNI1
I1
I0
tbS'1'
tRp1152
sS'/home/postma/In_progress/mfs_classifier/resources/wsd_corpora/semeval2015_task13_en/2.naf---t744'
p1153
g3
(g4
(S'S1'
I0
I1
tRp1154
(I3
S'|'
NNNI1
I1
I0
tbS'1'
tRp1155
sS'/home/postma/In_progress/mfs_classifier/resources/wsd_corpora/semeval2015_task13_en/2.naf---t157'
p1156
g3
(g4
(S'S1'
I0
I1
tRp1157
(I3
S'|'
NNNI1
I1
I0
tbS'1'
tRp1158
sS'/home/postma/In_progress/mfs_classifier/resources/wsd_corpora/semeval2015_task13_en/3.naf---t408'
p1159
g3
(g4
(S'S1'
I0
I1
tRp1160
(I3
S'|'
NNNI1
I1
I0
tbS'0'
tRp1161
sS'/home/postma/In_progress/mfs_classifier/resources/wsd_corpora/semeval2015_task13_en/1.naf---t708'
p1162
g3
(g4
(S'S1'
I0
I1
tRp1163
(I3
S'|'
NNNI1
I1
I0
tbS'1'
tRp1164
sS'/home/postma/In_progress/mfs_classifier/resources/wsd_corpora/semeval2015_task13_en/3.naf---t520'
p1165
g3
(g4
(S'S1'
I0
I1
tRp1166
(I3
S'|'
NNNI1
I1
I0
tbS'1'
tRp1167
sS'/home/postma/In_progress/mfs_classifier/resources/wsd_corpora/semeval2015_task13_en/1.naf---t702'
p1168
g3
(g4
(S'S1'
I0
I1
tRp1169
(I3
S'|'
NNNI1
I1
I0
tbS'1'
tRp1170
sS'/home/postma/In_progress/mfs_classifier/resources/wsd_corpora/semeval2015_task13_en/3.naf---t400'
p1171
g3
(g4
(S'S1'
I0
I1
tRp1172
(I3
S'|'
NNNI1
I1
I0
tbS'1'
tRp1173
sS'/home/postma/In_progress/mfs_classifier/resources/wsd_corpora/semeval2015_task13_en/3.naf---t407'
p1174
g3
(g4
(S'S1'
I0
I1
tRp1175
(I3
S'|'
NNNI1
I1
I0
tbS'1'
tRp1176
sS'/home/postma/In_progress/mfs_classifier/resources/wsd_corpora/semeval2015_task13_en/1.naf---t705'
p1177
g3
(g4
(S'S1'
I0
I1
tRp1178
(I3
S'|'
NNNI1
I1
I0
tbS'0'
tRp1179
sS'/home/postma/In_progress/mfs_classifier/resources/wsd_corpora/semeval2015_task13_en/3.naf---t267'
p1180
g3
(g4
(S'S1'
I0
I1
tRp1181
(I3
S'|'
NNNI1
I1
I0
tbS'1'
tRp1182
sS'/home/postma/In_progress/mfs_classifier/resources/wsd_corpora/semeval2015_task13_en/3.naf---t264'
p1183
g3
(g4
(S'S1'
I0
I1
tRp1184
(I3
S'|'
NNNI1
I1
I0
tbS'1'
tRp1185
sS'/home/postma/In_progress/mfs_classifier/resources/wsd_corpora/semeval2015_task13_en/2.naf---t142'
p1186
g3
(g4
(S'S1'
I0
I1
tRp1187
(I3
S'|'
NNNI1
I1
I0
tbS'1'
tRp1188
sS'/home/postma/In_progress/mfs_classifier/resources/wsd_corpora/semeval2015_task13_en/3.naf---t261'
p1189
g3
(g4
(S'S1'
I0
I1
tRp1190
(I3
S'|'
NNNI1
I1
I0
tbS'1'
tRp1191
sS'/home/postma/In_progress/mfs_classifier/resources/wsd_corpora/semeval2015_task13_en/3.naf---t547'
p1192
g3
(g4
(S'S1'
I0
I1
tRp1193
(I3
S'|'
NNNI1
I1
I0
tbS'1'
tRp1194
sS'/home/postma/In_progress/mfs_classifier/resources/wsd_corpora/semeval2015_task13_en/1.naf---t342'
p1195
g3
(g4
(S'S1'
I0
I1
tRp1196
(I3
S'|'
NNNI1
I1
I0
tbS'1'
tRp1197
sS'/home/postma/In_progress/mfs_classifier/resources/wsd_corpora/semeval2015_task13_en/3.naf---t543'
p1198
g3
(g4
(S'S1'
I0
I1
tRp1199
(I3
S'|'
NNNI1
I1
I0
tbS'1'
tRp1200
sS'/home/postma/In_progress/mfs_classifier/resources/wsd_corpora/semeval2015_task13_en/3.naf---t540'
p1201
g3
(g4
(S'S1'
I0
I1
tRp1202
(I3
S'|'
NNNI1
I1
I0
tbS'0'
tRp1203
sS'/home/postma/In_progress/mfs_classifier/resources/wsd_corpora/semeval2015_task13_en/2.naf---t735'
p1204
g3
(g4
(S'S1'
I0
I1
tRp1205
(I3
S'|'
NNNI1
I1
I0
tbS'1'
tRp1206
sS'/home/postma/In_progress/mfs_classifier/resources/wsd_corpora/semeval2015_task13_en/1.naf---t743'
p1207
g3
(g4
(S'S1'
I0
I1
tRp1208
(I3
S'|'
NNNI1
I1
I0
tbS'1'
tRp1209
sS'/home/postma/In_progress/mfs_classifier/resources/wsd_corpora/semeval2015_task13_en/1.naf---t305'
p1210
g3
(g4
(S'S1'
I0
I1
tRp1211
(I3
S'|'
NNNI1
I1
I0
tbS'1'
tRp1212
sS'/home/postma/In_progress/mfs_classifier/resources/wsd_corpora/semeval2015_task13_en/3.naf---t29'
p1213
g3
(g4
(S'S1'
I0
I1
tRp1214
(I3
S'|'
NNNI1
I1
I0
tbS'1'
tRp1215
sS'/home/postma/In_progress/mfs_classifier/resources/wsd_corpora/semeval2015_task13_en/3.naf---t28'
p1216
g3
(g4
(S'S1'
I0
I1
tRp1217
(I3
S'|'
NNNI1
I1
I0
tbS'1'
tRp1218
sS'/home/postma/In_progress/mfs_classifier/resources/wsd_corpora/semeval2015_task13_en/3.naf---t23'
p1219
g3
(g4
(S'S1'
I0
I1
tRp1220
(I3
S'|'
NNNI1
I1
I0
tbS'1'
tRp1221
sS'/home/postma/In_progress/mfs_classifier/resources/wsd_corpora/semeval2015_task13_en/1.naf---t714'
p1222
g3
(g4
(S'S1'
I0
I1
tRp1223
(I3
S'|'
NNNI1
I1
I0
tbS'0'
tRp1224
sS'/home/postma/In_progress/mfs_classifier/resources/wsd_corpora/semeval2015_task13_en/3.naf---t20'
p1225
g3
(g4
(S'S1'
I0
I1
tRp1226
(I3
S'|'
NNNI1
I1
I0
tbS'1'
tRp1227
sS'/home/postma/In_progress/mfs_classifier/resources/wsd_corpora/semeval2015_task13_en/3.naf---t26'
p1228
g3
(g4
(S'S1'
I0
I1
tRp1229
(I3
S'|'
NNNI1
I1
I0
tbS'1'
tRp1230
sS'/home/postma/In_progress/mfs_classifier/resources/wsd_corpora/semeval2015_task13_en/3.naf---t25'
p1231
g3
(g4
(S'S1'
I0
I1
tRp1232
(I3
S'|'
NNNI1
I1
I0
tbS'1'
tRp1233
sS'/home/postma/In_progress/mfs_classifier/resources/wsd_corpora/semeval2015_task13_en/2.naf---t625'
p1234
g3
(g4
(S'S1'
I0
I1
tRp1235
(I3
S'|'
NNNI1
I1
I0
tbS'0'
tRp1236
sS'/home/postma/In_progress/mfs_classifier/resources/wsd_corpora/semeval2015_task13_en/3.naf---t439'
p1237
g3
(g4
(S'S1'
I0
I1
tRp1238
(I3
S'|'
NNNI1
I1
I0
tbS'1'
tRp1239
sS'/home/postma/In_progress/mfs_classifier/resources/wsd_corpora/semeval2015_task13_en/1.naf---t805'
p1240
g3
(g4
(S'S1'
I0
I1
tRp1241
(I3
S'|'
NNNI1
I1
I0
tbS'0'
tRp1242
sS'/home/postma/In_progress/mfs_classifier/resources/wsd_corpora/semeval2015_task13_en/2.naf---t303'
p1243
g3
(g4
(S'S1'
I0
I1
tRp1244
(I3
S'|'
NNNI1
I1
I0
tbS'0'
tRp1245
sS'/home/postma/In_progress/mfs_classifier/resources/wsd_corpora/semeval2015_task13_en/1.naf---t154'
p1246
g3
(g4
(S'S1'
I0
I1
tRp1247
(I3
S'|'
NNNI1
I1
I0
tbS'1'
tRp1248
sS'/home/postma/In_progress/mfs_classifier/resources/wsd_corpora/semeval2015_task13_en/2.naf---t306'
p1249
g3
(g4
(S'S1'
I0
I1
tRp1250
(I3
S'|'
NNNI1
I1
I0
tbS'1'
tRp1251
sS'/home/postma/In_progress/mfs_classifier/resources/wsd_corpora/semeval2015_task13_en/2.naf---t307'
p1252
g3
(g4
(S'S1'
I0
I1
tRp1253
(I3
S'|'
NNNI1
I1
I0
tbS'1'
tRp1254
sS'/home/postma/In_progress/mfs_classifier/resources/wsd_corpora/semeval2015_task13_en/1.naf---t151'
p1255
g3
(g4
(S'S1'
I0
I1
tRp1256
(I3
S'|'
NNNI1
I1
I0
tbS'1'
tRp1257
sS'/home/postma/In_progress/mfs_classifier/resources/wsd_corpora/semeval2015_task13_en/1.naf---t523'
p1258
g3
(g4
(S'S1'
I0
I1
tRp1259
(I3
S'|'
NNNI1
I1
I0
tbS'0'
tRp1260
sS'/home/postma/In_progress/mfs_classifier/resources/wsd_corpora/semeval2015_task13_en/2.naf---t448'
p1261
g3
(g4
(S'S1'
I0
I1
tRp1262
(I3
S'|'
NNNI1
I1
I0
tbS'1'
tRp1263
sS'/home/postma/In_progress/mfs_classifier/resources/wsd_corpora/semeval2015_task13_en/1.naf---t520'
p1264
g3
(g4
(S'S1'
I0
I1
tRp1265
(I3
S'|'
NNNI1
I1
I0
tbS'1'
tRp1266
sS'/home/postma/In_progress/mfs_classifier/resources/wsd_corpora/semeval2015_task13_en/3.naf---t198'
p1267
g3
(g4
(S'S1'
I0
I1
tRp1268
(I3
S'|'
NNNI1
I1
I0
tbS'0'
tRp1269
sS'/home/postma/In_progress/mfs_classifier/resources/wsd_corpora/semeval2015_task13_en/1.naf---t526'
p1270
g3
(g4
(S'S1'
I0
I1
tRp1271
(I3
S'|'
NNNI1
I1
I0
tbS'1'
tRp1272
sS'/home/postma/In_progress/mfs_classifier/resources/wsd_corpora/semeval2015_task13_en/1.naf---t524'
p1273
g3
(g4
(S'S1'
I0
I1
tRp1274
(I3
S'|'
NNNI1
I1
I0
tbS'0'
tRp1275
sS'/home/postma/In_progress/mfs_classifier/resources/wsd_corpora/semeval2015_task13_en/3.naf---t194'
p1276
g3
(g4
(S'S1'
I0
I1
tRp1277
(I3
S'|'
NNNI1
I1
I0
tbS'1'
tRp1278
sS'/home/postma/In_progress/mfs_classifier/resources/wsd_corpora/semeval2015_task13_en/1.naf---t445'
p1279
g3
(g4
(S'S1'
I0
I1
tRp1280
(I3
S'|'
NNNI1
I1
I0
tbS'1'
tRp1281
sS'/home/postma/In_progress/mfs_classifier/resources/wsd_corpora/semeval2015_task13_en/3.naf---t197'
p1282
g3
(g4
(S'S1'
I0
I1
tRp1283
(I3
S'|'
NNNI1
I1
I0
tbS'1'
tRp1284
sS'/home/postma/In_progress/mfs_classifier/resources/wsd_corpora/semeval2015_task13_en/1.naf---t440'
p1285
g3
(g4
(S'S1'
I0
I1
tRp1286
(I3
S'|'
NNNI1
I1
I0
tbS'1'
tRp1287
sS'/home/postma/In_progress/mfs_classifier/resources/wsd_corpora/semeval2015_task13_en/2.naf---t201'
p1288
g3
(g4
(S'S1'
I0
I1
tRp1289
(I3
S'|'
NNNI1
I1
I0
tbS'1'
tRp1290
sS'/home/postma/In_progress/mfs_classifier/resources/wsd_corpora/semeval2015_task13_en/2.naf---t107'
p1291
g3
(g4
(S'S1'
I0
I1
tRp1292
(I3
S'|'
NNNI1
I1
I0
tbS'1'
tRp1293
sS'/home/postma/In_progress/mfs_classifier/resources/wsd_corpora/semeval2015_task13_en/4.naf---t240'
p1294
g3
(g4
(S'S1'
I0
I1
tRp1295
(I3
S'|'
NNNI1
I1
I0
tbS'1'
tRp1296
sS'/home/postma/In_progress/mfs_classifier/resources/wsd_corpora/semeval2015_task13_en/4.naf---t242'
p1297
g3
(g4
(S'S1'
I0
I1
tRp1298
(I3
S'|'
NNNI1
I1
I0
tbS'1'
tRp1299
sS'/home/postma/In_progress/mfs_classifier/resources/wsd_corpora/semeval2015_task13_en/4.naf---t230'
p1300
g3
(g4
(S'S1'
I0
I1
tRp1301
(I3
S'|'
NNNI1
I1
I0
tbS'0'
tRp1302
sS'/home/postma/In_progress/mfs_classifier/resources/wsd_corpora/semeval2015_task13_en/3.naf---t296'
p1303
g3
(g4
(S'S1'
I0
I1
tRp1304
(I3
S'|'
NNNI1
I1
I0
tbS'1'
tRp1305
sS'/home/postma/In_progress/mfs_classifier/resources/wsd_corpora/semeval2015_task13_en/3.naf---t295'
p1306
g3
(g4
(S'S1'
I0
I1
tRp1307
(I3
S'|'
NNNI1
I1
I0
tbS'0'
tRp1308
sS'/home/postma/In_progress/mfs_classifier/resources/wsd_corpora/semeval2015_task13_en/3.naf---t293'
p1309
g3
(g4
(S'S1'
I0
I1
tRp1310
(I3
S'|'
NNNI1
I1
I0
tbS'0'
tRp1311
sS'/home/postma/In_progress/mfs_classifier/resources/wsd_corpora/semeval2015_task13_en/3.naf---t350'
p1312
g3
(g4
(S'S1'
I0
I1
tRp1313
(I3
S'|'
NNNI1
I1
I0
tbS'1'
tRp1314
sS'/home/postma/In_progress/mfs_classifier/resources/wsd_corpora/semeval2015_task13_en/4.naf---t236'
p1315
g3
(g4
(S'S1'
I0
I1
tRp1316
(I3
S'|'
NNNI1
I1
I0
tbS'1'
tRp1317
sS'/home/postma/In_progress/mfs_classifier/resources/wsd_corpora/semeval2015_task13_en/2.naf---t597'
p1318
g3
(g4
(S'S1'
I0
I1
tRp1319
(I3
S'|'
NNNI1
I1
I0
tbS'1'
tRp1320
sS'/home/postma/In_progress/mfs_classifier/resources/wsd_corpora/semeval2015_task13_en/4.naf---t332'
p1321
g3
(g4
(S'S1'
I0
I1
tRp1322
(I3
S'|'
NNNI1
I1
I0
tbS'1'
tRp1323
sS'/home/postma/In_progress/mfs_classifier/resources/wsd_corpora/semeval2015_task13_en/2.naf---t522'
p1324
g3
(g4
(S'S1'
I0
I1
tRp1325
(I3
S'|'
NNNI1
I1
I0
tbS'1'
tRp1326
sS'/home/postma/In_progress/mfs_classifier/resources/wsd_corpora/semeval2015_task13_en/2.naf---t523'
p1327
g3
(g4
(S'S1'
I0
I1
tRp1328
(I3
S'|'
NNNI1
I1
I0
tbS'1'
tRp1329
sS'/home/postma/In_progress/mfs_classifier/resources/wsd_corpora/semeval2015_task13_en/2.naf---t526'
p1330
g3
(g4
(S'S1'
I0
I1
tRp1331
(I3
S'|'
NNNI1
I1
I0
tbS'1'
tRp1332
sS'/home/postma/In_progress/mfs_classifier/resources/wsd_corpora/semeval2015_task13_en/2.naf---t527'
p1333
g3
(g4
(S'S1'
I0
I1
tRp1334
(I3
S'|'
NNNI1
I1
I0
tbS'1'
tRp1335
sS'/home/postma/In_progress/mfs_classifier/resources/wsd_corpora/semeval2015_task13_en/2.naf---t525'
p1336
g3
(g4
(S'S1'
I0
I1
tRp1337
(I3
S'|'
NNNI1
I1
I0
tbS'1'
tRp1338
sS'/home/postma/In_progress/mfs_classifier/resources/wsd_corpora/semeval2015_task13_en/2.naf---t281'
p1339
g3
(g4
(S'S1'
I0
I1
tRp1340
(I3
S'|'
NNNI1
I1
I0
tbS'1'
tRp1341
sS'/home/postma/In_progress/mfs_classifier/resources/wsd_corpora/semeval2015_task13_en/2.naf---t491'
p1342
g3
(g4
(S'S1'
I0
I1
tRp1343
(I3
S'|'
NNNI1
I1
I0
tbS'0'
tRp1344
sS'/home/postma/In_progress/mfs_classifier/resources/wsd_corpora/semeval2015_task13_en/3.naf---t494'
p1345
g3
(g4
(S'S1'
I0
I1
tRp1346
(I3
S'|'
NNNI1
I1
I0
tbS'1'
tRp1347
sS'/home/postma/In_progress/mfs_classifier/resources/wsd_corpora/semeval2015_task13_en/3.naf---t497'
p1348
g3
(g4
(S'S1'
I0
I1
tRp1349
(I3
S'|'
NNNI1
I1
I0
tbS'1'
tRp1350
sS'/home/postma/In_progress/mfs_classifier/resources/wsd_corpora/semeval2015_task13_en/3.naf---t496'
p1351
g3
(g4
(S'S1'
I0
I1
tRp1352
(I3
S'|'
NNNI1
I1
I0
tbS'0'
tRp1353
sS'/home/postma/In_progress/mfs_classifier/resources/wsd_corpora/semeval2015_task13_en/2.naf---t698'
p1354
g3
(g4
(S'S1'
I0
I1
tRp1355
(I3
S'|'
NNNI1
I1
I0
tbS'1'
tRp1356
sS'/home/postma/In_progress/mfs_classifier/resources/wsd_corpora/semeval2015_task13_en/3.naf---t490'
p1357
g3
(g4
(S'S1'
I0
I1
tRp1358
(I3
S'|'
NNNI1
I1
I0
tbS'1'
tRp1359
sS'/home/postma/In_progress/mfs_classifier/resources/wsd_corpora/semeval2015_task13_en/4.naf---t161'
p1360
g3
(g4
(S'S1'
I0
I1
tRp1361
(I3
S'|'
NNNI1
I1
I0
tbS'1'
tRp1362
sS'/home/postma/In_progress/mfs_classifier/resources/wsd_corpora/semeval2015_task13_en/1.naf---t636'
p1363
g3
(g4
(S'S1'
I0
I1
tRp1364
(I3
S'|'
NNNI1
I1
I0
tbS'1'
tRp1365
sS'/home/postma/In_progress/mfs_classifier/resources/wsd_corpora/semeval2015_task13_en/1.naf---t635'
p1366
g3
(g4
(S'S1'
I0
I1
tRp1367
(I3
S'|'
NNNI1
I1
I0
tbS'1'
tRp1368
sS'/home/postma/In_progress/mfs_classifier/resources/wsd_corpora/semeval2015_task13_en/1.naf---t633'
p1369
g3
(g4
(S'S1'
I0
I1
tRp1370
(I3
S'|'
NNNI1
I1
I0
tbS'1'
tRp1371
sS'/home/postma/In_progress/mfs_classifier/resources/wsd_corpora/semeval2015_task13_en/1.naf---t631'
p1372
g3
(g4
(S'S1'
I0
I1
tRp1373
(I3
S'|'
NNNI1
I1
I0
tbS'0'
tRp1374
sS'/home/postma/In_progress/mfs_classifier/resources/wsd_corpora/semeval2015_task13_en/1.naf---t630'
p1375
g3
(g4
(S'S1'
I0
I1
tRp1376
(I3
S'|'
NNNI1
I1
I0
tbS'1'
tRp1377
sS'/home/postma/In_progress/mfs_classifier/resources/wsd_corpora/semeval2015_task13_en/2.naf---t32'
p1378
g3
(g4
(S'S1'
I0
I1
tRp1379
(I3
S'|'
NNNI1
I1
I0
tbS'1'
tRp1380
sS'/home/postma/In_progress/mfs_classifier/resources/wsd_corpora/semeval2015_task13_en/2.naf---t37'
p1381
g3
(g4
(S'S1'
I0
I1
tRp1382
(I3
S'|'
NNNI1
I1
I0
tbS'1'
tRp1383
sS'/home/postma/In_progress/mfs_classifier/resources/wsd_corpora/semeval2015_task13_en/2.naf---t39'
p1384
g3
(g4
(S'S1'
I0
I1
tRp1385
(I3
S'|'
NNNI1
I1
I0
tbS'1'
tRp1386
sS'/home/postma/In_progress/mfs_classifier/resources/wsd_corpora/semeval2015_task13_en/3.naf---t467'
p1387
g3
(g4
(S'S1'
I0
I1
tRp1388
(I3
S'|'
NNNI1
I1
I0
tbS'1'
tRp1389
sS'/home/postma/In_progress/mfs_classifier/resources/wsd_corpora/semeval2015_task13_en/4.naf---t403'
p1390
g3
(g4
(S'S1'
I0
I1
tRp1391
(I3
S'|'
NNNI1
I1
I0
tbS'1'
tRp1392
sS'/home/postma/In_progress/mfs_classifier/resources/wsd_corpora/semeval2015_task13_en/3.naf---t161'
p1393
g3
(g4
(S'S1'
I0
I1
tRp1394
(I3
S'|'
NNNI1
I1
I0
tbS'1'
tRp1395
sS'/home/postma/In_progress/mfs_classifier/resources/wsd_corpora/semeval2015_task13_en/3.naf---t163'
p1396
g3
(g4
(S'S1'
I0
I1
tRp1397
(I3
S'|'
NNNI1
I1
I0
tbS'1'
tRp1398
sS'/home/postma/In_progress/mfs_classifier/resources/wsd_corpora/semeval2015_task13_en/2.naf---t592'
p1399
g3
(g4
(S'S1'
I0
I1
tRp1400
(I3
S'|'
NNNI1
I1
I0
tbS'1'
tRp1401
sS'/home/postma/In_progress/mfs_classifier/resources/wsd_corpora/semeval2015_task13_en/3.naf---t167'
p1402
g3
(g4
(S'S1'
I0
I1
tRp1403
(I3
S'|'
NNNI1
I1
I0
tbS'1'
tRp1404
sS'/home/postma/In_progress/mfs_classifier/resources/wsd_corpora/semeval2015_task13_en/3.naf---t166'
p1405
g3
(g4
(S'S1'
I0
I1
tRp1406
(I3
S'|'
NNNI1
I1
I0
tbS'1'
tRp1407
sS'/home/postma/In_progress/mfs_classifier/resources/wsd_corpora/semeval2015_task13_en/3.naf---t169'
p1408
g3
(g4
(S'S1'
I0
I1
tRp1409
(I3
S'|'
NNNI1
I1
I0
tbS'1'
tRp1410
sS'/home/postma/In_progress/mfs_classifier/resources/wsd_corpora/semeval2015_task13_en/4.naf---t121'
p1411
g3
(g4
(S'S1'
I0
I1
tRp1412
(I3
S'|'
NNNI1
I1
I0
tbS'0'
tRp1413
sS'/home/postma/In_progress/mfs_classifier/resources/wsd_corpora/semeval2015_task13_en/2.naf---t599'
p1414
g3
(g4
(S'S1'
I0
I1
tRp1415
(I3
S'|'
NNNI1
I1
I0
tbS'1'
tRp1416
sS'/home/postma/In_progress/mfs_classifier/resources/wsd_corpora/semeval2015_task13_en/2.naf---t598'
p1417
g3
(g4
(S'S1'
I0
I1
tRp1418
(I3
S'|'
NNNI1
I1
I0
tbS'1'
tRp1419
sS'/home/postma/In_progress/mfs_classifier/resources/wsd_corpora/semeval2015_task13_en/1.naf---t206'
p1420
g3
(g4
(S'S1'
I0
I1
tRp1421
(I3
S'|'
NNNI1
I1
I0
tbS'1'
tRp1422
sS'/home/postma/In_progress/mfs_classifier/resources/wsd_corpora/semeval2015_task13_en/1.naf---t817'
p1423
g3
(g4
(S'S1'
I0
I1
tRp1424
(I3
S'|'
NNNI1
I1
I0
tbS'1'
tRp1425
sS'/home/postma/In_progress/mfs_classifier/resources/wsd_corpora/semeval2015_task13_en/1.naf---t202'
p1426
g3
(g4
(S'S1'
I0
I1
tRp1427
(I3
S'|'
NNNI1
I1
I0
tbS'0'
tRp1428
sS'/home/postma/In_progress/mfs_classifier/resources/wsd_corpora/semeval2015_task13_en/1.naf---t203'
p1429
g3
(g4
(S'S1'
I0
I1
tRp1430
(I3
S'|'
NNNI1
I1
I0
tbS'1'
tRp1431
sS'/home/postma/In_progress/mfs_classifier/resources/wsd_corpora/semeval2015_task13_en/1.naf---t200'
p1432
g3
(g4
(S'S1'
I0
I1
tRp1433
(I3
S'|'
NNNI1
I1
I0
tbS'1'
tRp1434
sS'/home/postma/In_progress/mfs_classifier/resources/wsd_corpora/semeval2015_task13_en/2.naf---t41'
p1435
g3
(g4
(S'S1'
I0
I1
tRp1436
(I3
S'|'
NNNI1
I1
I0
tbS'1'
tRp1437
sS'/home/postma/In_progress/mfs_classifier/resources/wsd_corpora/semeval2015_task13_en/3.naf---t337'
p1438
g3
(g4
(S'S1'
I0
I1
tRp1439
(I3
S'|'
NNNI1
I1
I0
tbS'0'
tRp1440
sS'/home/postma/In_progress/mfs_classifier/resources/wsd_corpora/semeval2015_task13_en/3.naf---t537'
p1441
g3
(g4
(S'S1'
I0
I1
tRp1442
(I3
S'|'
NNNI1
I1
I0
tbS'1'
tRp1443
sS'/home/postma/In_progress/mfs_classifier/resources/wsd_corpora/semeval2015_task13_en/3.naf---t534'
p1444
g3
(g4
(S'S1'
I0
I1
tRp1445
(I3
S'|'
NNNI1
I1
I0
tbS'1'
tRp1446
sS'/home/postma/In_progress/mfs_classifier/resources/wsd_corpora/semeval2015_task13_en/3.naf---t530'
p1447
g3
(g4
(S'S1'
I0
I1
tRp1448
(I3
S'|'
NNNI1
I1
I0
tbS'1'
tRp1449
sS'/home/postma/In_progress/mfs_classifier/resources/wsd_corpora/semeval2015_task13_en/1.naf---t776'
p1450
g3
(g4
(S'S1'
I0
I1
tRp1451
(I3
S'|'
NNNI1
I1
I0
tbS'1'
tRp1452
sS'/home/postma/In_progress/mfs_classifier/resources/wsd_corpora/semeval2015_task13_en/2.naf---t519'
p1453
g3
(g4
(S'S1'
I0
I1
tRp1454
(I3
S'|'
NNNI1
I1
I0
tbS'0'
tRp1455
sS'/home/postma/In_progress/mfs_classifier/resources/wsd_corpora/semeval2015_task13_en/3.naf---t479'
p1456
g3
(g4
(S'S1'
I0
I1
tRp1457
(I3
S'|'
NNNI1
I1
I0
tbS'1'
tRp1458
sS'/home/postma/In_progress/mfs_classifier/resources/wsd_corpora/semeval2015_task13_en/3.naf---t538'
p1459
g3
(g4
(S'S1'
I0
I1
tRp1460
(I3
S'|'
NNNI1
I1
I0
tbS'0'
tRp1461
sS'/home/postma/In_progress/mfs_classifier/resources/wsd_corpora/semeval2015_task13_en/1.naf---t324'
p1462
g3
(g4
(S'S1'
I0
I1
tRp1463
(I3
S'|'
NNNI1
I1
I0
tbS'1'
tRp1464
sS'/home/postma/In_progress/mfs_classifier/resources/wsd_corpora/semeval2015_task13_en/2.naf---t276'
p1465
g3
(g4
(S'S1'
I0
I1
tRp1466
(I3
S'|'
NNNI1
I1
I0
tbS'1'
tRp1467
sS'/home/postma/In_progress/mfs_classifier/resources/wsd_corpora/semeval2015_task13_en/1.naf---t747'
p1468
g3
(g4
(S'S1'
I0
I1
tRp1469
(I3
S'|'
NNNI1
I1
I0
tbS'0'
tRp1470
sS'/home/postma/In_progress/mfs_classifier/resources/wsd_corpora/semeval2015_task13_en/1.naf---t329'
p1471
g3
(g4
(S'S1'
I0
I1
tRp1472
(I3
S'|'
NNNI1
I1
I0
tbS'1'
tRp1473
sS'/home/postma/In_progress/mfs_classifier/resources/wsd_corpora/semeval2015_task13_en/1.naf---t808'
p1474
g3
(g4
(S'S1'
I0
I1
tRp1475
(I3
S'|'
NNNI1
I1
I0
tbS'1'
tRp1476
sS'/home/postma/In_progress/mfs_classifier/resources/wsd_corpora/semeval2015_task13_en/2.naf---t628'
p1477
g3
(g4
(S'S1'
I0
I1
tRp1478
(I3
S'|'
NNNI1
I1
I0
tbS'1'
tRp1479
sS'/home/postma/In_progress/mfs_classifier/resources/wsd_corpora/semeval2015_task13_en/1.naf---t804'
p1480
g3
(g4
(S'S1'
I0
I1
tRp1481
(I3
S'|'
NNNI1
I1
I0
tbS'1'
tRp1482
sS'/home/postma/In_progress/mfs_classifier/resources/wsd_corpora/semeval2015_task13_en/2.naf---t624'
p1483
g3
(g4
(S'S1'
I0
I1
tRp1484
(I3
S'|'
NNNI1
I1
I0
tbS'0'
tRp1485
sS'/home/postma/In_progress/mfs_classifier/resources/wsd_corpora/semeval2015_task13_en/1.naf---t800'
p1486
g3
(g4
(S'S1'
I0
I1
tRp1487
(I3
S'|'
NNNI1
I1
I0
tbS'1'
tRp1488
sS'/home/postma/In_progress/mfs_classifier/resources/wsd_corpora/semeval2015_task13_en/1.naf---t749'
p1489
g3
(g4
(S'S1'
I0
I1
tRp1490
(I3
S'|'
NNNI1
I1
I0
tbS'1'
tRp1491
sS'/home/postma/In_progress/mfs_classifier/resources/wsd_corpora/semeval2015_task13_en/1.naf---t803'
p1492
g3
(g4
(S'S1'
I0
I1
tRp1493
(I3
S'|'
NNNI1
I1
I0
tbS'1'
tRp1494
sS'/home/postma/In_progress/mfs_classifier/resources/wsd_corpora/semeval2015_task13_en/2.naf---t351'
p1495
g3
(g4
(S'S1'
I0
I1
tRp1496
(I3
S'|'
NNNI1
I1
I0
tbS'1'
tRp1497
sS'/home/postma/In_progress/mfs_classifier/resources/wsd_corpora/semeval2015_task13_en/1.naf---t187'
p1498
g3
(g4
(S'S1'
I0
I1
tRp1499
(I3
S'|'
NNNI1
I1
I0
tbS'1'
tRp1500
sS'/home/postma/In_progress/mfs_classifier/resources/wsd_corpora/semeval2015_task13_en/2.naf---t495'
p1501
g3
(g4
(S'S1'
I0
I1
tRp1502
(I3
S'|'
NNNI1
I1
I0
tbS'0'
tRp1503
sS'/home/postma/In_progress/mfs_classifier/resources/wsd_corpora/semeval2015_task13_en/1.naf---t181'
p1504
g3
(g4
(S'S1'
I0
I1
tRp1505
(I3
S'|'
NNNI1
I1
I0
tbS'1'
tRp1506
sS'/home/postma/In_progress/mfs_classifier/resources/wsd_corpora/semeval2015_task13_en/2.naf---t356'
p1507
g3
(g4
(S'S1'
I0
I1
tRp1508
(I3
S'|'
NNNI1
I1
I0
tbS'1'
tRp1509
sS'/home/postma/In_progress/mfs_classifier/resources/wsd_corpora/semeval2015_task13_en/1.naf---t189'
p1510
g3
(g4
(S'S1'
I0
I1
tRp1511
(I3
S'|'
NNNI1
I1
I0
tbS'0'
tRp1512
sS'/home/postma/In_progress/mfs_classifier/resources/wsd_corpora/semeval2015_task13_en/2.naf---t236'
p1513
g3
(g4
(S'S1'
I0
I1
tRp1514
(I3
S'|'
NNNI1
I1
I0
tbS'1'
tRp1515
sS'/home/postma/In_progress/mfs_classifier/resources/wsd_corpora/semeval2015_task13_en/2.naf---t237'
p1516
g3
(g4
(S'S1'
I0
I1
tRp1517
(I3
S'|'
NNNI1
I1
I0
tbS'1'
tRp1518
sS'/home/postma/In_progress/mfs_classifier/resources/wsd_corpora/semeval2015_task13_en/2.naf---t235'
p1519
g3
(g4
(S'S1'
I0
I1
tRp1520
(I3
S'|'
NNNI1
I1
I0
tbS'0'
tRp1521
sS'/home/postma/In_progress/mfs_classifier/resources/wsd_corpora/semeval2015_task13_en/2.naf---t233'
p1522
g3
(g4
(S'S1'
I0
I1
tRp1523
(I3
S'|'
NNNI1
I1
I0
tbS'1'
tRp1524
sS'/home/postma/In_progress/mfs_classifier/resources/wsd_corpora/semeval2015_task13_en/2.naf---t230'
p1525
g3
(g4
(S'S1'
I0
I1
tRp1526
(I3
S'|'
NNNI1
I1
I0
tbS'1'
tRp1527
sS'/home/postma/In_progress/mfs_classifier/resources/wsd_corpora/semeval2015_task13_en/3.naf---t341'
p1528
g3
(g4
(S'S1'
I0
I1
tRp1529
(I3
S'|'
NNNI1
I1
I0
tbS'1'
tRp1530
sS'/home/postma/In_progress/mfs_classifier/resources/wsd_corpora/semeval2015_task13_en/3.naf---t340'
p1531
g3
(g4
(S'S1'
I0
I1
tRp1532
(I3
S'|'
NNNI1
I1
I0
tbS'0'
tRp1533
sS'/home/postma/In_progress/mfs_classifier/resources/wsd_corpora/semeval2015_task13_en/3.naf---t343'
p1534
g3
(g4
(S'S1'
I0
I1
tRp1535
(I3
S'|'
NNNI1
I1
I0
tbS'1'
tRp1536
sS'/home/postma/In_progress/mfs_classifier/resources/wsd_corpora/semeval2015_task13_en/3.naf---t345'
p1537
g3
(g4
(S'S1'
I0
I1
tRp1538
(I3
S'|'
NNNI1
I1
I0
tbS'1'
tRp1539
sS'/home/postma/In_progress/mfs_classifier/resources/wsd_corpora/semeval2015_task13_en/4.naf---t172'
p1540
g3
(g4
(S'S1'
I0
I1
tRp1541
(I3
S'|'
NNNI1
I1
I0
tbS'1'
tRp1542
sS'/home/postma/In_progress/mfs_classifier/resources/wsd_corpora/semeval2015_task13_en/3.naf---t347'
p1543
g3
(g4
(S'S1'
I0
I1
tRp1544
(I3
S'|'
NNNI1
I1
I0
tbS'1'
tRp1545
sS'/home/postma/In_progress/mfs_classifier/resources/wsd_corpora/semeval2015_task13_en/3.naf---t75'
p1546
g3
(g4
(S'S1'
I0
I1
tRp1547
(I3
S'|'
NNNI1
I1
I0
tbS'0'
tRp1548
sS'/home/postma/In_progress/mfs_classifier/resources/wsd_corpora/semeval2015_task13_en/3.naf---t70'
p1549
g3
(g4
(S'S1'
I0
I1
tRp1550
(I3
S'|'
NNNI1
I1
I0
tbS'1'
tRp1551
sS'/home/postma/In_progress/mfs_classifier/resources/wsd_corpora/semeval2015_task13_en/3.naf---t72'
p1552
g3
(g4
(S'S1'
I0
I1
tRp1553
(I3
S'|'
NNNI1
I1
I0
tbS'1'
tRp1554
sS'/home/postma/In_progress/mfs_classifier/resources/wsd_corpora/semeval2015_task13_en/3.naf---t73'
p1555
g3
(g4
(S'S1'
I0
I1
tRp1556
(I3
S'|'
NNNI1
I1
I0
tbS'1'
tRp1557
sS'/home/postma/In_progress/mfs_classifier/resources/wsd_corpora/semeval2015_task13_en/1.naf---t207'
p1558
g3
(g4
(S'S1'
I0
I1
tRp1559
(I3
S'|'
NNNI1
I1
I0
tbS'0'
tRp1560
sS'/home/postma/In_progress/mfs_classifier/resources/wsd_corpora/semeval2015_task13_en/3.naf---t78'
p1561
g3
(g4
(S'S1'
I0
I1
tRp1562
(I3
S'|'
NNNI1
I1
I0
tbS'1'
tRp1563
sS'/home/postma/In_progress/mfs_classifier/resources/wsd_corpora/semeval2015_task13_en/3.naf---t79'
p1564
g3
(g4
(S'S1'
I0
I1
tRp1565
(I3
S'|'
NNNI1
I1
I0
tbS'0'
tRp1566
sS'/home/postma/In_progress/mfs_classifier/resources/wsd_corpora/semeval2015_task13_en/1.naf---t122'
p1567
g3
(g4
(S'S1'
I0
I1
tRp1568
(I3
S'|'
NNNI1
I1
I0
tbS'1'
tRp1569
sS'/home/postma/In_progress/mfs_classifier/resources/wsd_corpora/semeval2015_task13_en/1.naf---t119'
p1570
g3
(g4
(S'S1'
I0
I1
tRp1571
(I3
S'|'
NNNI1
I1
I0
tbS'1'
tRp1572
sS'/home/postma/In_progress/mfs_classifier/resources/wsd_corpora/semeval2015_task13_en/1.naf---t59'
p1573
g3
(g4
(S'S1'
I0
I1
tRp1574
(I3
S'|'
NNNI1
I1
I0
tbS'1'
tRp1575
sS'/home/postma/In_progress/mfs_classifier/resources/wsd_corpora/semeval2015_task13_en/1.naf---t112'
p1576
g3
(g4
(S'S1'
I0
I1
tRp1577
(I3
S'|'
NNNI1
I1
I0
tbS'1'
tRp1578
sS'/home/postma/In_progress/mfs_classifier/resources/wsd_corpora/semeval2015_task13_en/1.naf---t57'
p1579
g3
(g4
(S'S1'
I0
I1
tRp1580
(I3
S'|'
NNNI1
I1
I0
tbS'0'
tRp1581
sS'/home/postma/In_progress/mfs_classifier/resources/wsd_corpora/semeval2015_task13_en/1.naf---t50'
p1582
g3
(g4
(S'S1'
I0
I1
tRp1583
(I3
S'|'
NNNI1
I1
I0
tbS'1'
tRp1584
sS'/home/postma/In_progress/mfs_classifier/resources/wsd_corpora/semeval2015_task13_en/1.naf---t117'
p1585
g3
(g4
(S'S1'
I0
I1
tRp1586
(I3
S'|'
NNNI1
I1
I0
tbS'1'
tRp1587
sS'/home/postma/In_progress/mfs_classifier/resources/wsd_corpora/semeval2015_task13_en/1.naf---t53'
p1588
g3
(g4
(S'S1'
I0
I1
tRp1589
(I3
S'|'
NNNI1
I1
I0
tbS'1'
tRp1590
sS'/home/postma/In_progress/mfs_classifier/resources/wsd_corpora/semeval2015_task13_en/3.naf---t222'
p1591
g3
(g4
(S'S1'
I0
I1
tRp1592
(I3
S'|'
NNNI1
I1
I0
tbS'1'
tRp1593
sS'/home/postma/In_progress/mfs_classifier/resources/wsd_corpora/semeval2015_task13_en/3.naf---t221'
p1594
g3
(g4
(S'S1'
I0
I1
tRp1595
(I3
S'|'
NNNI1
I1
I0
tbS'1'
tRp1596
sS'/home/postma/In_progress/mfs_classifier/resources/wsd_corpora/semeval2015_task13_en/3.naf---t225'
p1597
g3
(g4
(S'S1'
I0
I1
tRp1598
(I3
S'|'
NNNI1
I1
I0
tbS'1'
tRp1599
sS'/home/postma/In_progress/mfs_classifier/resources/wsd_corpora/semeval2015_task13_en/3.naf---t229'
p1600
g3
(g4
(S'S1'
I0
I1
tRp1601
(I3
S'|'
NNNI1
I1
I0
tbS'1'
tRp1602
sS'/home/postma/In_progress/mfs_classifier/resources/wsd_corpora/semeval2015_task13_en/4.naf---t129'
p1603
g3
(g4
(S'S1'
I0
I1
tRp1604
(I3
S'|'
NNNI1
I1
I0
tbS'1'
tRp1605
sS'/home/postma/In_progress/mfs_classifier/resources/wsd_corpora/semeval2015_task13_en/4.naf---t281'
p1606
g3
(g4
(S'S1'
I0
I1
tRp1607
(I3
S'|'
NNNI1
I1
I0
tbS'1'
tRp1608
sS'/home/postma/In_progress/mfs_classifier/resources/wsd_corpora/semeval2015_task13_en/1.naf---t88'
p1609
g3
(g4
(S'S1'
I0
I1
tRp1610
(I3
S'|'
NNNI1
I1
I0
tbS'1'
tRp1611
sS'/home/postma/In_progress/mfs_classifier/resources/wsd_corpora/semeval2015_task13_en/1.naf---t642'
p1612
g3
(g4
(S'S1'
I0
I1
tRp1613
(I3
S'|'
NNNI1
I1
I0
tbS'1'
tRp1614
sS'/home/postma/In_progress/mfs_classifier/resources/wsd_corpora/semeval2015_task13_en/3.naf---t423'
p1615
g3
(g4
(S'S1'
I0
I1
tRp1616
(I3
S'|'
NNNI1
I1
I0
tbS'1'
tRp1617
sS'/home/postma/In_progress/mfs_classifier/resources/wsd_corpora/semeval2015_task13_en/4.naf---t287'
p1618
g3
(g4
(S'S1'
I0
I1
tRp1619
(I3
S'|'
NNNI1
I1
I0
tbS'0'
tRp1620
sS'/home/postma/In_progress/mfs_classifier/resources/wsd_corpora/semeval2015_task13_en/4.naf---t286'
p1621
g3
(g4
(S'S1'
I0
I1
tRp1622
(I3
S'|'
NNNI1
I1
I0
tbS'1'
tRp1623
sS'/home/postma/In_progress/mfs_classifier/resources/wsd_corpora/semeval2015_task13_en/1.naf---t81'
p1624
g3
(g4
(S'S1'
I0
I1
tRp1625
(I3
S'|'
NNNI1
I1
I0
tbS'1'
tRp1626
sS'/home/postma/In_progress/mfs_classifier/resources/wsd_corpora/semeval2015_task13_en/1.naf---t80'
p1627
g3
(g4
(S'S1'
I0
I1
tRp1628
(I3
S'|'
NNNI1
I1
I0
tbS'1'
tRp1629
sS'/home/postma/In_progress/mfs_classifier/resources/wsd_corpora/semeval2015_task13_en/4.naf---t62'
p1630
g3
(g4
(S'S1'
I0
I1
tRp1631
(I3
S'|'
NNNI1
I1
I0
tbS'1'
tRp1632
sS'/home/postma/In_progress/mfs_classifier/resources/wsd_corpora/semeval2015_task13_en/1.naf---t561'
p1633
g3
(g4
(S'S1'
I0
I1
tRp1634
(I3
S'|'
NNNI1
I1
I0
tbS'0'
tRp1635
sS'/home/postma/In_progress/mfs_classifier/resources/wsd_corpora/semeval2015_task13_en/1.naf---t84'
p1636
g3
(g4
(S'S1'
I0
I1
tRp1637
(I3
S'|'
NNNI1
I1
I0
tbS'1'
tRp1638
sS'/home/postma/In_progress/mfs_classifier/resources/wsd_corpora/semeval2015_task13_en/1.naf---t504'
p1639
g3
(g4
(S'S1'
I0
I1
tRp1640
(I3
S'|'
NNNI1
I1
I0
tbS'1'
tRp1641
sS'/home/postma/In_progress/mfs_classifier/resources/wsd_corpora/semeval2015_task13_en/4.naf---t471'
p1642
g3
(g4
(S'S1'
I0
I1
tRp1643
(I3
S'|'
NNNI1
I1
I0
tbS'1'
tRp1644
sS'/home/postma/In_progress/mfs_classifier/resources/wsd_corpora/semeval2015_task13_en/4.naf---t173'
p1645
g3
(g4
(S'S1'
I0
I1
tRp1646
(I3
S'|'
NNNI1
I1
I0
tbS'1'
tRp1647
sS'/home/postma/In_progress/mfs_classifier/resources/wsd_corpora/semeval2015_task13_en/1.naf---t602'
p1648
g3
(g4
(S'S1'
I0
I1
tRp1649
(I3
S'|'
NNNI1
I1
I0
tbS'1'
tRp1650
sS'/home/postma/In_progress/mfs_classifier/resources/wsd_corpora/semeval2015_task13_en/4.naf---t278'
p1651
g3
(g4
(S'S1'
I0
I1
tRp1652
(I3
S'|'
NNNI1
I1
I0
tbS'1'
tRp1653
sS'/home/postma/In_progress/mfs_classifier/resources/wsd_corpora/semeval2015_task13_en/2.naf---t70'
p1654
g3
(g4
(S'S1'
I0
I1
tRp1655
(I3
S'|'
NNNI1
I1
I0
tbS'1'
tRp1656
sS'/home/postma/In_progress/mfs_classifier/resources/wsd_corpora/semeval2015_task13_en/2.naf---t73'
p1657
g3
(g4
(S'S1'
I0
I1
tRp1658
(I3
S'|'
NNNI1
I1
I0
tbS'1'
tRp1659
sS'/home/postma/In_progress/mfs_classifier/resources/wsd_corpora/semeval2015_task13_en/3.naf---t144'
p1660
g3
(g4
(S'S1'
I0
I1
tRp1661
(I3
S'|'
NNNI1
I1
I0
tbS'1'
tRp1662
sS'/home/postma/In_progress/mfs_classifier/resources/wsd_corpora/semeval2015_task13_en/3.naf---t392'
p1663
g3
(g4
(S'S1'
I0
I1
tRp1664
(I3
S'|'
NNNI1
I1
I0
tbS'1'
tRp1665
sS'/home/postma/In_progress/mfs_classifier/resources/wsd_corpora/semeval2015_task13_en/4.naf---t275'
p1666
g3
(g4
(S'S1'
I0
I1
tRp1667
(I3
S'|'
NNNI1
I1
I0
tbS'1'
tRp1668
sS'/home/postma/In_progress/mfs_classifier/resources/wsd_corpora/semeval2015_task13_en/4.naf---t179'
p1669
g3
(g4
(S'S1'
I0
I1
tRp1670
(I3
S'|'
NNNI1
I1
I0
tbS'1'
tRp1671
sS'/home/postma/In_progress/mfs_classifier/resources/wsd_corpora/semeval2015_task13_en/2.naf---t79'
p1672
g3
(g4
(S'S1'
I0
I1
tRp1673
(I3
S'|'
NNNI1
I1
I0
tbS'1'
tRp1674
sS'/home/postma/In_progress/mfs_classifier/resources/wsd_corpora/semeval2015_task13_en/3.naf---t397'
p1675
g3
(g4
(S'S1'
I0
I1
tRp1676
(I3
S'|'
NNNI1
I1
I0
tbS'1'
tRp1677
sS'/home/postma/In_progress/mfs_classifier/resources/wsd_corpora/semeval2015_task13_en/4.naf---t272'
p1678
g3
(g4
(S'S1'
I0
I1
tRp1679
(I3
S'|'
NNNI1
I1
I0
tbS'0'
tRp1680
sS'/home/postma/In_progress/mfs_classifier/resources/wsd_corpora/semeval2015_task13_en/2.naf---t406'
p1681
g3
(g4
(S'S1'
I0
I1
tRp1682
(I3
S'|'
NNNI1
I1
I0
tbS'1'
tRp1683
sS'/home/postma/In_progress/mfs_classifier/resources/wsd_corpora/semeval2015_task13_en/2.naf---t400'
p1684
g3
(g4
(S'S1'
I0
I1
tRp1685
(I3
S'|'
NNNI1
I1
I0
tbS'1'
tRp1686
sS'/home/postma/In_progress/mfs_classifier/resources/wsd_corpora/semeval2015_task13_en/2.naf---t505'
p1687
g3
(g4
(S'S1'
I0
I1
tRp1688
(I3
S'|'
NNNI1
I1
I0
tbS'0'
tRp1689
sS'/home/postma/In_progress/mfs_classifier/resources/wsd_corpora/semeval2015_task13_en/3.naf---t151'
p1690
g3
(g4
(S'S1'
I0
I1
tRp1691
(I3
S'|'
NNNI1
I1
I0
tbS'1'
tRp1692
sS'/home/postma/In_progress/mfs_classifier/resources/wsd_corpora/semeval2015_task13_en/3.naf---t152'
p1693
g3
(g4
(S'S1'
I0
I1
tRp1694
(I3
S'|'
NNNI1
I1
I0
tbS'1'
tRp1695
sS'/home/postma/In_progress/mfs_classifier/resources/wsd_corpora/semeval2015_task13_en/3.naf---t155'
p1696
g3
(g4
(S'S1'
I0
I1
tRp1697
(I3
S'|'
NNNI1
I1
I0
tbS'0'
tRp1698
sS'/home/postma/In_progress/mfs_classifier/resources/wsd_corpora/semeval2015_task13_en/3.naf---t157'
p1699
g3
(g4
(S'S1'
I0
I1
tRp1700
(I3
S'|'
NNNI1
I1
I0
tbS'1'
tRp1701
sS'/home/postma/In_progress/mfs_classifier/resources/wsd_corpora/semeval2015_task13_en/2.naf---t507'
p1702
g3
(g4
(S'S1'
I0
I1
tRp1703
(I3
S'|'
NNNI1
I1
I0
tbS'1'
tRp1704
sS'/home/postma/In_progress/mfs_classifier/resources/wsd_corpora/semeval2015_task13_en/4.naf---t199'
p1705
g3
(g4
(S'S1'
I0
I1
tRp1706
(I3
S'|'
NNNI1
I1
I0
tbS'1'
tRp1707
sS'/home/postma/In_progress/mfs_classifier/resources/wsd_corpora/semeval2015_task13_en/2.naf---t129'
p1708
g3
(g4
(S'S1'
I0
I1
tRp1709
(I3
S'|'
NNNI1
I1
I0
tbS'1'
tRp1710
sS'/home/postma/In_progress/mfs_classifier/resources/wsd_corpora/semeval2015_task13_en/4.naf---t11'
p1711
g3
(g4
(S'S1'
I0
I1
tRp1712
(I3
S'|'
NNNI1
I1
I0
tbS'1'
tRp1713
sS'/home/postma/In_progress/mfs_classifier/resources/wsd_corpora/semeval2015_task13_en/4.naf---t10'
p1714
g3
(g4
(S'S1'
I0
I1
tRp1715
(I3
S'|'
NNNI1
I1
I0
tbS'1'
tRp1716
sS'/home/postma/In_progress/mfs_classifier/resources/wsd_corpora/semeval2015_task13_en/1.naf---t391'
p1717
g3
(g4
(S'S1'
I0
I1
tRp1718
(I3
S'|'
NNNI1
I1
I0
tbS'0'
tRp1719
sS'/home/postma/In_progress/mfs_classifier/resources/wsd_corpora/semeval2015_task13_en/4.naf---t191'
p1720
g3
(g4
(S'S1'
I0
I1
tRp1721
(I3
S'|'
NNNI1
I1
I0
tbS'1'
tRp1722
sS'/home/postma/In_progress/mfs_classifier/resources/wsd_corpora/semeval2015_task13_en/4.naf---t14'
p1723
g3
(g4
(S'S1'
I0
I1
tRp1724
(I3
S'|'
NNNI1
I1
I0
tbS'1'
tRp1725
sS'/home/postma/In_progress/mfs_classifier/resources/wsd_corpora/semeval2015_task13_en/4.naf---t17'
p1726
g3
(g4
(S'S1'
I0
I1
tRp1727
(I3
S'|'
NNNI1
I1
I0
tbS'1'
tRp1728
sS'/home/postma/In_progress/mfs_classifier/resources/wsd_corpora/semeval2015_task13_en/2.naf---t121'
p1729
g3
(g4
(S'S1'
I0
I1
tRp1730
(I3
S'|'
NNNI1
I1
I0
tbS'1'
tRp1731
sS'/home/postma/In_progress/mfs_classifier/resources/wsd_corpora/semeval2015_task13_en/2.naf---t621'
p1732
g3
(g4
(S'S1'
I0
I1
tRp1733
(I3
S'|'
NNNI1
I1
I0
tbS'1'
tRp1734
sS'/home/postma/In_progress/mfs_classifier/resources/wsd_corpora/semeval2015_task13_en/2.naf---t82'
p1735
g3
(g4
(S'S1'
I0
I1
tRp1736
(I3
S'|'
NNNI1
I1
I0
tbS'1'
tRp1737
sS'/home/postma/In_progress/mfs_classifier/resources/wsd_corpora/semeval2015_task13_en/1.naf---t243'
p1738
g3
(g4
(S'S1'
I0
I1
tRp1739
(I3
S'|'
NNNI1
I1
I0
tbS'1'
tRp1740
sS'/home/postma/In_progress/mfs_classifier/resources/wsd_corpora/semeval2015_task13_en/2.naf---t713'
p1741
g3
(g4
(S'S1'
I0
I1
tRp1742
(I3
S'|'
NNNI1
I1
I0
tbS'1'
tRp1743
sS'/home/postma/In_progress/mfs_classifier/resources/wsd_corpora/semeval2015_task13_en/2.naf---t723'
p1744
g3
(g4
(S'S1'
I0
I1
tRp1745
(I3
S'|'
NNNI1
I1
I0
tbS'0'
tRp1746
sS'/home/postma/In_progress/mfs_classifier/resources/wsd_corpora/semeval2015_task13_en/3.naf---t129'
p1747
g3
(g4
(S'S1'
I0
I1
tRp1748
(I3
S'|'
NNNI1
I1
I0
tbS'1'
tRp1749
sS'/home/postma/In_progress/mfs_classifier/resources/wsd_corpora/semeval2015_task13_en/2.naf---t717'
p1750
g3
(g4
(S'S1'
I0
I1
tRp1751
(I3
S'|'
NNNI1
I1
I0
tbS'0'
tRp1752
sS'/home/postma/In_progress/mfs_classifier/resources/wsd_corpora/semeval2015_task13_en/1.naf---t245'
p1753
g3
(g4
(S'S1'
I0
I1
tRp1754
(I3
S'|'
NNNI1
I1
I0
tbS'1'
tRp1755
sS'/home/postma/In_progress/mfs_classifier/resources/wsd_corpora/semeval2015_task13_en/3.naf---t125'
p1756
g3
(g4
(S'S1'
I0
I1
tRp1757
(I3
S'|'
NNNI1
I1
I0
tbS'0'
tRp1758
sS'/home/postma/In_progress/mfs_classifier/resources/wsd_corpora/semeval2015_task13_en/2.naf---t718'
p1759
g3
(g4
(S'S1'
I0
I1
tRp1760
(I3
S'|'
NNNI1
I1
I0
tbS'1'
tRp1761
sS'/home/postma/In_progress/mfs_classifier/resources/wsd_corpora/semeval2015_task13_en/3.naf---t126'
p1762
g3
(g4
(S'S1'
I0
I1
tRp1763
(I3
S'|'
NNNI1
I1
I0
tbS'1'
tRp1764
sS'/home/postma/In_progress/mfs_classifier/resources/wsd_corpora/semeval2015_task13_en/2.naf---t497'
p1765
g3
(g4
(S'S1'
I0
I1
tRp1766
(I3
S'|'
NNNI1
I1
I0
tbS'1'
tRp1767
sS'/home/postma/In_progress/mfs_classifier/resources/wsd_corpora/semeval2015_task13_en/2.naf---t725'
p1768
g3
(g4
(S'S1'
I0
I1
tRp1769
(I3
S'|'
NNNI1
I1
I0
tbS'0'
tRp1770
sS'/home/postma/In_progress/mfs_classifier/resources/wsd_corpora/semeval2015_task13_en/2.naf---t658'
p1771
g3
(g4
(S'S1'
I0
I1
tRp1772
(I3
S'|'
NNNI1
I1
I0
tbS'1'
tRp1773
sS'/home/postma/In_progress/mfs_classifier/resources/wsd_corpora/semeval2015_task13_en/2.naf---t659'
p1774
g3
(g4
(S'S1'
I0
I1
tRp1775
(I3
S'|'
NNNI1
I1
I0
tbS'1'
tRp1776
sS'/home/postma/In_progress/mfs_classifier/resources/wsd_corpora/semeval2015_task13_en/3.naf---t452'
p1777
g3
(g4
(S'S1'
I0
I1
tRp1778
(I3
S'|'
NNNI1
I1
I0
tbS'1'
tRp1779
sS'/home/postma/In_progress/mfs_classifier/resources/wsd_corpora/semeval2015_task13_en/3.naf---t455'
p1780
g3
(g4
(S'S1'
I0
I1
tRp1781
(I3
S'|'
NNNI1
I1
I0
tbS'1'
tRp1782
sS'/home/postma/In_progress/mfs_classifier/resources/wsd_corpora/semeval2015_task13_en/3.naf---t456'
p1783
g3
(g4
(S'S1'
I0
I1
tRp1784
(I3
S'|'
NNNI1
I1
I0
tbS'1'
tRp1785
sS'/home/postma/In_progress/mfs_classifier/resources/wsd_corpora/semeval2015_task13_en/1.naf---t363'
p1786
g3
(g4
(S'S1'
I0
I1
tRp1787
(I3
S'|'
NNNI1
I1
I0
tbS'1'
tRp1788
sS'/home/postma/In_progress/mfs_classifier/resources/wsd_corpora/semeval2015_task13_en/2.naf---t653'
p1789
g3
(g4
(S'S1'
I0
I1
tRp1790
(I3
S'|'
NNNI1
I1
I0
tbS'1'
tRp1791
sS'/home/postma/In_progress/mfs_classifier/resources/wsd_corpora/semeval2015_task13_en/2.naf---t656'
p1792
g3
(g4
(S'S1'
I0
I1
tRp1793
(I3
S'|'
NNNI1
I1
I0
tbS'1'
tRp1794
sS'/home/postma/In_progress/mfs_classifier/resources/wsd_corpora/semeval2015_task13_en/1.naf---t366'
p1795
g3
(g4
(S'S1'
I0
I1
tRp1796
(I3
S'|'
NNNI1
I1
I0
tbS'1'
tRp1797
sS'/home/postma/In_progress/mfs_classifier/resources/wsd_corpora/semeval2015_task13_en/3.naf---t279'
p1798
g3
(g4
(S'S1'
I0
I1
tRp1799
(I3
S'|'
NNNI1
I1
I0
tbS'1'
tRp1800
sS'/home/postma/In_progress/mfs_classifier/resources/wsd_corpora/semeval2015_task13_en/3.naf---t372'
p1801
g3
(g4
(S'S1'
I0
I1
tRp1802
(I3
S'|'
NNNI1
I1
I0
tbS'1'
tRp1803
sS'/home/postma/In_progress/mfs_classifier/resources/wsd_corpora/semeval2015_task13_en/3.naf---t375'
p1804
g3
(g4
(S'S1'
I0
I1
tRp1805
(I3
S'|'
NNNI1
I1
I0
tbS'1'
tRp1806
sS'/home/postma/In_progress/mfs_classifier/resources/wsd_corpora/semeval2015_task13_en/3.naf---t376'
p1807
g3
(g4
(S'S1'
I0
I1
tRp1808
(I3
S'|'
NNNI1
I1
I0
tbS'1'
tRp1809
sS'/home/postma/In_progress/mfs_classifier/resources/wsd_corpora/semeval2015_task13_en/2.naf---t457'
p1810
g3
(g4
(S'S1'
I0
I1
tRp1811
(I3
S'|'
NNNI1
I1
I0
tbS'1'
tRp1812
sS'/home/postma/In_progress/mfs_classifier/resources/wsd_corpora/semeval2015_task13_en/3.naf---t271'
p1813
g3
(g4
(S'S1'
I0
I1
tRp1814
(I3
S'|'
NNNI1
I1
I0
tbS'1'
tRp1815
sS'/home/postma/In_progress/mfs_classifier/resources/wsd_corpora/semeval2015_task13_en/3.naf---t270'
p1816
g3
(g4
(S'S1'
I0
I1
tRp1817
(I3
S'|'
NNNI1
I1
I0
tbS'1'
tRp1818
sS'/home/postma/In_progress/mfs_classifier/resources/wsd_corpora/semeval2015_task13_en/3.naf---t273'
p1819
g3
(g4
(S'S1'
I0
I1
tRp1820
(I3
S'|'
NNNI1
I1
I0
tbS'1'
tRp1821
sS'/home/postma/In_progress/mfs_classifier/resources/wsd_corpora/semeval2015_task13_en/3.naf---t89'
p1822
g3
(g4
(S'S1'
I0
I1
tRp1823
(I3
S'|'
NNNI1
I1
I0
tbS'1'
tRp1824
sS'/home/postma/In_progress/mfs_classifier/resources/wsd_corpora/semeval2015_task13_en/3.naf---t87'
p1825
g3
(g4
(S'S1'
I0
I1
tRp1826
(I3
S'|'
NNNI1
I1
I0
tbS'1'
tRp1827
sS'/home/postma/In_progress/mfs_classifier/resources/wsd_corpora/semeval2015_task13_en/1.naf---t115'
p1828
g3
(g4
(S'S1'
I0
I1
tRp1829
(I3
S'|'
NNNI1
I1
I0
tbS'0'
tRp1830
sS'/home/postma/In_progress/mfs_classifier/resources/wsd_corpora/semeval2015_task13_en/3.naf---t81'
p1831
g3
(g4
(S'S1'
I0
I1
tRp1832
(I3
S'|'
NNNI1
I1
I0
tbS'0'
tRp1833
sS'/home/postma/In_progress/mfs_classifier/resources/wsd_corpora/semeval2015_task13_en/3.naf---t38'
p1834
g3
(g4
(S'S1'
I0
I1
tRp1835
(I3
S'|'
NNNI1
I1
I0
tbS'1'
tRp1836
sS'/home/postma/In_progress/mfs_classifier/resources/wsd_corpora/semeval2015_task13_en/3.naf---t39'
p1837
g3
(g4
(S'S1'
I0
I1
tRp1838
(I3
S'|'
NNNI1
I1
I0
tbS'1'
tRp1839
sS'/home/postma/In_progress/mfs_classifier/resources/wsd_corpora/semeval2015_task13_en/1.naf---t142'
p1840
g3
(g4
(S'S1'
I0
I1
tRp1841
(I3
S'|'
NNNI1
I1
I0
tbS'0'
tRp1842
sS'/home/postma/In_progress/mfs_classifier/resources/wsd_corpora/semeval2015_task13_en/1.naf---t144'
p1843
g3
(g4
(S'S1'
I0
I1
tRp1844
(I3
S'|'
NNNI1
I1
I0
tbS'1'
tRp1845
sS'/home/postma/In_progress/mfs_classifier/resources/wsd_corpora/semeval2015_task13_en/1.naf---t146'
p1846
g3
(g4
(S'S1'
I0
I1
tRp1847
(I3
S'|'
NNNI1
I1
I0
tbS'1'
tRp1848
sS'/home/postma/In_progress/mfs_classifier/resources/wsd_corpora/semeval2015_task13_en/3.naf---t33'
p1849
g3
(g4
(S'S1'
I0
I1
tRp1850
(I3
S'|'
NNNI1
I1
I0
tbS'1'
tRp1851
sS'/home/postma/In_progress/mfs_classifier/resources/wsd_corpora/semeval2015_task13_en/3.naf---t36'
p1852
g3
(g4
(S'S1'
I0
I1
tRp1853
(I3
S'|'
NNNI1
I1
I0
tbS'1'
tRp1854
sS'/home/postma/In_progress/mfs_classifier/resources/wsd_corpora/semeval2015_task13_en/3.naf---t37'
p1855
g3
(g4
(S'S1'
I0
I1
tRp1856
(I3
S'|'
NNNI1
I1
I0
tbS'1'
tRp1857
sS'/home/postma/In_progress/mfs_classifier/resources/wsd_corpora/semeval2015_task13_en/2.naf---t319'
p1858
g3
(g4
(S'S1'
I0
I1
tRp1859
(I3
S'|'
NNNI1
I1
I0
tbS'0'
tRp1860
sS'/home/postma/In_progress/mfs_classifier/resources/wsd_corpora/semeval2015_task13_en/2.naf---t516'
p1861
g3
(g4
(S'S1'
I0
I1
tRp1862
(I3
S'|'
NNNI1
I1
I0
tbS'0'
tRp1863
sS'/home/postma/In_progress/mfs_classifier/resources/wsd_corpora/semeval2015_task13_en/1.naf---t347'
p1864
g3
(g4
(S'S1'
I0
I1
tRp1865
(I3
S'|'
NNNI1
I1
I0
tbS'1'
tRp1866
sS'/home/postma/In_progress/mfs_classifier/resources/wsd_corpora/semeval2015_task13_en/2.naf---t316'
p1867
g3
(g4
(S'S1'
I0
I1
tRp1868
(I3
S'|'
NNNI1
I1
I0
tbS'0'
tRp1869
sS'/home/postma/In_progress/mfs_classifier/resources/wsd_corpora/semeval2015_task13_en/2.naf---t515'
p1870
g3
(g4
(S'S1'
I0
I1
tRp1871
(I3
S'|'
NNNI1
I1
I0
tbS'1'
tRp1872
sS'/home/postma/In_progress/mfs_classifier/resources/wsd_corpora/semeval2015_task13_en/2.naf---t470'
p1873
g3
(g4
(S'S1'
I0
I1
tRp1874
(I3
S'|'
NNNI1
I1
I0
tbS'1'
tRp1875
sS'/home/postma/In_progress/mfs_classifier/resources/wsd_corpora/semeval2015_task13_en/2.naf---t472'
p1876
g3
(g4
(S'S1'
I0
I1
tRp1877
(I3
S'|'
NNNI1
I1
I0
tbS'1'
tRp1878
sS'/home/postma/In_progress/mfs_classifier/resources/wsd_corpora/semeval2015_task13_en/1.naf---t410'
p1879
g3
(g4
(S'S1'
I0
I1
tRp1880
(I3
S'|'
NNNI1
I1
I0
tbS'1'
tRp1881
sS'/home/postma/In_progress/mfs_classifier/resources/wsd_corpora/semeval2015_task13_en/1.naf---t415'
p1882
g3
(g4
(S'S1'
I0
I1
tRp1883
(I3
S'|'
NNNI1
I1
I0
tbS'0'
tRp1884
sS'/home/postma/In_progress/mfs_classifier/resources/wsd_corpora/semeval2015_task13_en/1.naf---t418'
p1885
g3
(g4
(S'S1'
I0
I1
tRp1886
(I3
S'|'
NNNI1
I1
I0
tbS'1'
tRp1887
sS'/home/postma/In_progress/mfs_classifier/resources/wsd_corpora/semeval2015_task13_en/2.naf---t575'
p1888
g3
(g4
(S'S1'
I0
I1
tRp1889
(I3
S'|'
NNNI1
I1
I0
tbS'1'
tRp1890
sS'/home/postma/In_progress/mfs_classifier/resources/wsd_corpora/semeval2015_task13_en/1.naf---t511'
p1891
g3
(g4
(S'S1'
I0
I1
tRp1892
(I3
S'|'
NNNI1
I1
I0
tbS'1'
tRp1893
sS'/home/postma/In_progress/mfs_classifier/resources/wsd_corpora/semeval2015_task13_en/2.naf---t90'
p1894
g3
(g4
(S'S1'
I0
I1
tRp1895
(I3
S'|'
NNNI1
I1
I0
tbS'1'
tRp1896
sS'/home/postma/In_progress/mfs_classifier/resources/wsd_corpora/semeval2015_task13_en/4.naf---t376'
p1897
g3
(g4
(S'S1'
I0
I1
tRp1898
(I3
S'|'
NNNI1
I1
I0
tbS'0'
tRp1899
sS'/home/postma/In_progress/mfs_classifier/resources/wsd_corpora/semeval2015_task13_en/4.naf---t371'
p1900
g3
(g4
(S'S1'
I0
I1
tRp1901
(I3
S'|'
NNNI1
I1
I0
tbS'1'
tRp1902
sS'/home/postma/In_progress/mfs_classifier/resources/wsd_corpora/semeval2015_task13_en/1.naf---t597'
p1903
g3
(g4
(S'S1'
I0
I1
tRp1904
(I3
S'|'
NNNI1
I1
I0
tbS'1'
tRp1905
sS'/home/postma/In_progress/mfs_classifier/resources/wsd_corpora/semeval2015_task13_en/1.naf---t10'
p1906
g3
(g4
(S'S1'
I0
I1
tRp1907
(I3
S'|'
NNNI1
I1
I0
tbS'1'
tRp1908
sS'/home/postma/In_progress/mfs_classifier/resources/wsd_corpora/semeval2015_task13_en/1.naf---t11'
p1909
g3
(g4
(S'S1'
I0
I1
tRp1910
(I3
S'|'
NNNI1
I1
I0
tbS'1'
tRp1911
sS'/home/postma/In_progress/mfs_classifier/resources/wsd_corpora/semeval2015_task13_en/4.naf---t304'
p1912
g3
(g4
(S'S1'
I0
I1
tRp1913
(I3
S'|'
NNNI1
I1
I0
tbS'1'
tRp1914
sS'/home/postma/In_progress/mfs_classifier/resources/wsd_corpora/semeval2015_task13_en/4.naf---t306'
p1915
g3
(g4
(S'S1'
I0
I1
tRp1916
(I3
S'|'
NNNI1
I1
I0
tbS'1'
tRp1917
sS'/home/postma/In_progress/mfs_classifier/resources/wsd_corpora/semeval2015_task13_en/1.naf---t17'
p1918
g3
(g4
(S'S1'
I0
I1
tRp1919
(I3
S'|'
NNNI1
I1
I0
tbS'1'
tRp1920
sS'/home/postma/In_progress/mfs_classifier/resources/wsd_corpora/semeval2015_task13_en/4.naf---t308'
p1921
g3
(g4
(S'S1'
I0
I1
tRp1922
(I3
S'|'
NNNI1
I1
I0
tbS'1'
tRp1923
sS'/home/postma/In_progress/mfs_classifier/resources/wsd_corpora/semeval2015_task13_en/1.naf---t618'
p1924
g3
(g4
(S'S1'
I0
I1
tRp1925
(I3
S'|'
NNNI1
I1
I0
tbS'1'
tRp1926
sS'/home/postma/In_progress/mfs_classifier/resources/wsd_corpora/semeval2015_task13_en/3.naf---t304'
p1927
g3
(g4
(S'S1'
I0
I1
tRp1928
(I3
S'|'
NNNI1
I1
I0
tbS'1'
tRp1929
sS'/home/postma/In_progress/mfs_classifier/resources/wsd_corpora/semeval2015_task13_en/2.naf---t271'
p1930
g3
(g4
(S'S1'
I0
I1
tRp1931
(I3
S'|'
NNNI1
I1
I0
tbS'0'
tRp1932
sS'/home/postma/In_progress/mfs_classifier/resources/wsd_corpora/semeval2015_task13_en/3.naf---t301'
p1933
g3
(g4
(S'S1'
I0
I1
tRp1934
(I3
S'|'
NNNI1
I1
I0
tbS'0'
tRp1935
sS'/home/postma/In_progress/mfs_classifier/resources/wsd_corpora/semeval2015_task13_en/3.naf---t300'
p1936
g3
(g4
(S'S1'
I0
I1
tRp1937
(I3
S'|'
NNNI1
I1
I0
tbS'0'
tRp1938
sS'/home/postma/In_progress/mfs_classifier/resources/wsd_corpora/semeval2015_task13_en/2.naf---t668'
p1939
g3
(g4
(S'S1'
I0
I1
tRp1940
(I3
S'|'
NNNI1
I1
I0
tbS'1'
tRp1941
sS'/home/postma/In_progress/mfs_classifier/resources/wsd_corpora/semeval2015_task13_en/3.naf---t308'
p1942
g3
(g4
(S'S1'
I0
I1
tRp1943
(I3
S'|'
NNNI1
I1
I0
tbS'0'
tRp1944
sS'/home/postma/In_progress/mfs_classifier/resources/wsd_corpora/semeval2015_task13_en/3.naf---t468'
p1945
g3
(g4
(S'S1'
I0
I1
tRp1946
(I3
S'|'
NNNI1
I1
I0
tbS'1'
tRp1947
sS'/home/postma/In_progress/mfs_classifier/resources/wsd_corpora/semeval2015_task13_en/1.naf---t646'
p1948
g3
(g4
(S'S1'
I0
I1
tRp1949
(I3
S'|'
NNNI1
I1
I0
tbS'1'
tRp1950
sS'/home/postma/In_progress/mfs_classifier/resources/wsd_corpora/semeval2015_task13_en/4.naf---t430'
p1951
g3
(g4
(S'S1'
I0
I1
tRp1952
(I3
S'|'
NNNI1
I1
I0
tbS'0'
tRp1953
sS'/home/postma/In_progress/mfs_classifier/resources/wsd_corpora/semeval2015_task13_en/4.naf---t435'
p1954
g3
(g4
(S'S1'
I0
I1
tRp1955
(I3
S'|'
NNNI1
I1
I0
tbS'0'
tRp1956
sS'/home/postma/In_progress/mfs_classifier/resources/wsd_corpora/semeval2015_task13_en/3.naf---t461'
p1957
g3
(g4
(S'S1'
I0
I1
tRp1958
(I3
S'|'
NNNI1
I1
I0
tbS'1'
tRp1959
sS'/home/postma/In_progress/mfs_classifier/resources/wsd_corpora/semeval2015_task13_en/2.naf---t685'
p1960
g3
(g4
(S'S1'
I0
I1
tRp1961
(I3
S'|'
NNNI1
I1
I0
tbS'1'
tRp1962
sS'/home/postma/In_progress/mfs_classifier/resources/wsd_corpora/semeval2015_task13_en/2.naf---t684'
p1963
g3
(g4
(S'S1'
I0
I1
tRp1964
(I3
S'|'
NNNI1
I1
I0
tbS'1'
tRp1965
sS'/home/postma/In_progress/mfs_classifier/resources/wsd_corpora/semeval2015_task13_en/3.naf---t464'
p1966
g3
(g4
(S'S1'
I0
I1
tRp1967
(I3
S'|'
NNNI1
I1
I0
tbS'0'
tRp1968
sS'/home/postma/In_progress/mfs_classifier/resources/wsd_corpora/semeval2015_task13_en/2.naf---t682'
p1969
g3
(g4
(S'S1'
I0
I1
tRp1970
(I3
S'|'
NNNI1
I1
I0
tbS'1'
tRp1971
sS'/home/postma/In_progress/mfs_classifier/resources/wsd_corpora/semeval2015_task13_en/2.naf---t680'
p1972
g3
(g4
(S'S1'
I0
I1
tRp1973
(I3
S'|'
NNNI1
I1
I0
tbS'1'
tRp1974
sS'/home/postma/In_progress/mfs_classifier/resources/wsd_corpora/semeval2015_task13_en/4.naf---t282'
p1975
g3
(g4
(S'S1'
I0
I1
tRp1976
(I3
S'|'
NNNI1
I1
I0
tbS'0'
tRp1977
sS'/home/postma/In_progress/mfs_classifier/resources/wsd_corpora/semeval2015_task13_en/3.naf---t115'
p1978
g3
(g4
(S'S1'
I0
I1
tRp1979
(I3
S'|'
NNNI1
I1
I0
tbS'1'
tRp1980
sS'/home/postma/In_progress/mfs_classifier/resources/wsd_corpora/semeval2015_task13_en/3.naf---t110'
p1981
g3
(g4
(S'S1'
I0
I1
tRp1982
(I3
S'|'
NNNI1
I1
I0
tbS'1'
tRp1983
sS'/home/postma/In_progress/mfs_classifier/resources/wsd_corpora/semeval2015_task13_en/4.naf---t138'
p1984
g3
(g4
(S'S1'
I0
I1
tRp1985
(I3
S'|'
NNNI1
I1
I0
tbS'1'
tRp1986
sS'/home/postma/In_progress/mfs_classifier/resources/wsd_corpora/semeval2015_task13_en/4.naf---t133'
p1987
g3
(g4
(S'S1'
I0
I1
tRp1988
(I3
S'|'
NNNI1
I1
I0
tbS'1'
tRp1989
sS'/home/postma/In_progress/mfs_classifier/resources/wsd_corpora/semeval2015_task13_en/3.naf---t119'
p1990
g3
(g4
(S'S1'
I0
I1
tRp1991
(I3
S'|'
NNNI1
I1
I0
tbS'1'
tRp1992
sS'/home/postma/In_progress/mfs_classifier/resources/wsd_corpora/semeval2015_task13_en/4.naf---t131'
p1993
g3
(g4
(S'S1'
I0
I1
tRp1994
(I3
S'|'
NNNI1
I1
I0
tbS'1'
tRp1995
sS'/home/postma/In_progress/mfs_classifier/resources/wsd_corpora/semeval2015_task13_en/2.naf---t728'
p1996
g3
(g4
(S'S1'
I0
I1
tRp1997
(I3
S'|'
NNNI1
I1
I0
tbS'1'
tRp1998
sS'/home/postma/In_progress/mfs_classifier/resources/wsd_corpora/semeval2015_task13_en/1.naf---t218'
p1999
g3
(g4
(S'S1'
I0
I1
tRp2000
(I3
S'|'
NNNI1
I1
I0
tbS'1'
tRp2001
sS'/home/postma/In_progress/mfs_classifier/resources/wsd_corpora/semeval2015_task13_en/1.naf---t352'
p2002
g3
(g4
(S'S1'
I0
I1
tRp2003
(I3
S'|'
NNNI1
I1
I0
tbS'1'
tRp2004
sS'/home/postma/In_progress/mfs_classifier/resources/wsd_corpora/semeval2015_task13_en/1.naf---t606'
p2005
g3
(g4
(S'S1'
I0
I1
tRp2006
(I3
S'|'
NNNI1
I1
I0
tbS'0'
tRp2007
sS'/home/postma/In_progress/mfs_classifier/resources/wsd_corpora/semeval2015_task13_en/1.naf---t356'
p2008
g3
(g4
(S'S1'
I0
I1
tRp2009
(I3
S'|'
NNNI1
I1
I0
tbS'1'
tRp2010
sS'/home/postma/In_progress/mfs_classifier/resources/wsd_corpora/semeval2015_task13_en/1.naf---t358'
p2011
g3
(g4
(S'S1'
I0
I1
tRp2012
(I3
S'|'
NNNI1
I1
I0
tbS'0'
tRp2013
sS'/home/postma/In_progress/mfs_classifier/resources/wsd_corpora/semeval2015_task13_en/1.naf---t210'
p2014
g3
(g4
(S'S1'
I0
I1
tRp2015
(I3
S'|'
NNNI1
I1
I0
tbS'1'
tRp2016
sS'/home/postma/In_progress/mfs_classifier/resources/wsd_corpora/semeval2015_task13_en/2.naf---t722'
p2017
g3
(g4
(S'S1'
I0
I1
tRp2018
(I3
S'|'
NNNI1
I1
I0
tbS'1'
tRp2019
sS'/home/postma/In_progress/mfs_classifier/resources/wsd_corpora/semeval2015_task13_en/1.naf---t609'
p2020
g3
(g4
(S'S1'
I0
I1
tRp2021
(I3
S'|'
NNNI1
I1
I0
tbS'1'
tRp2022
sS'/home/postma/In_progress/mfs_classifier/resources/wsd_corpora/semeval2015_task13_en/1.naf---t214'
p2023
g3
(g4
(S'S1'
I0
I1
tRp2024
(I3
S'|'
NNNI1
I1
I0
tbS'1'
tRp2025
sS'/home/postma/In_progress/mfs_classifier/resources/wsd_corpora/semeval2015_task13_en/2.naf---t726'
p2026
g3
(g4
(S'S1'
I0
I1
tRp2027
(I3
S'|'
NNNI1
I1
I0
tbS'1'
tRp2028
sS'/home/postma/In_progress/mfs_classifier/resources/wsd_corpora/semeval2015_task13_en/2.naf---t369'
p2029
g3
(g4
(S'S1'
I0
I1
tRp2030
(I3
S'|'
NNNI1
I1
I0
tbS'1'
tRp2031
sS'/home/postma/In_progress/mfs_classifier/resources/wsd_corpora/semeval2015_task13_en/1.naf---t852'
p2032
g3
(g4
(S'S1'
I0
I1
tRp2033
(I3
S'|'
NNNI1
I1
I0
tbS'1'
tRp2034
sS'/home/postma/In_progress/mfs_classifier/resources/wsd_corpora/semeval2015_task13_en/2.naf---t360'
p2035
g3
(g4
(S'S1'
I0
I1
tRp2036
(I3
S'|'
NNNI1
I1
I0
tbS'0'
tRp2037
sS'/home/postma/In_progress/mfs_classifier/resources/wsd_corpora/semeval2015_task13_en/2.naf---t362'
p2038
g3
(g4
(S'S1'
I0
I1
tRp2039
(I3
S'|'
NNNI1
I1
I0
tbS'1'
tRp2040
sS'/home/postma/In_progress/mfs_classifier/resources/wsd_corpora/semeval2015_task13_en/2.naf---t365'
p2041
g3
(g4
(S'S1'
I0
I1
tRp2042
(I3
S'|'
NNNI1
I1
I0
tbS'1'
tRp2043
sS'/home/postma/In_progress/mfs_classifier/resources/wsd_corpora/semeval2015_task13_en/3.naf---t436'
p2044
g3
(g4
(S'S1'
I0
I1
tRp2045
(I3
S'|'
NNNI1
I1
I0
tbS'1'
tRp2046
sS'/home/postma/In_progress/mfs_classifier/resources/wsd_corpora/semeval2015_task13_en/4.naf---t55'
p2047
g3
(g4
(S'S1'
I0
I1
tRp2048
(I3
S'|'
NNNI1
I1
I0
tbS'1'
tRp2049
sS'/home/postma/In_progress/mfs_classifier/resources/wsd_corpora/semeval2015_task13_en/4.naf---t57'
p2050
g3
(g4
(S'S1'
I0
I1
tRp2051
(I3
S'|'
NNNI1
I1
I0
tbS'1'
tRp2052
sS'/home/postma/In_progress/mfs_classifier/resources/wsd_corpora/semeval2015_task13_en/4.naf---t51'
p2053
g3
(g4
(S'S1'
I0
I1
tRp2054
(I3
S'|'
NNNI1
I1
I0
tbS'1'
tRp2055
sS'/home/postma/In_progress/mfs_classifier/resources/wsd_corpora/semeval2015_task13_en/4.naf---t50'
p2056
g3
(g4
(S'S1'
I0
I1
tRp2057
(I3
S'|'
NNNI1
I1
I0
tbS'0'
tRp2058
sS'/home/postma/In_progress/mfs_classifier/resources/wsd_corpora/semeval2015_task13_en/1.naf---t853'
p2059
g3
(g4
(S'S1'
I0
I1
tRp2060
(I3
S'|'
NNNI1
I1
I0
tbS'1'
tRp2061
sS'/home/postma/In_progress/mfs_classifier/resources/wsd_corpora/semeval2015_task13_en/2.naf---t615'
p2062
g3
(g4
(S'S1'
I0
I1
tRp2063
(I3
S'|'
NNNI1
I1
I0
tbS'1'
tRp2064
sS'/home/postma/In_progress/mfs_classifier/resources/wsd_corpora/semeval2015_task13_en/1.naf---t327'
p2065
g3
(g4
(S'S1'
I0
I1
tRp2066
(I3
S'|'
NNNI1
I1
I0
tbS'1'
tRp2067
sS'/home/postma/In_progress/mfs_classifier/resources/wsd_corpora/semeval2015_task13_en/2.naf---t617'
p2068
g3
(g4
(S'S1'
I0
I1
tRp2069
(I3
S'|'
NNNI1
I1
I0
tbS'1'
tRp2070
sS'/home/postma/In_progress/mfs_classifier/resources/wsd_corpora/semeval2015_task13_en/1.naf---t320'
p2071
g3
(g4
(S'S1'
I0
I1
tRp2072
(I3
S'|'
NNNI1
I1
I0
tbS'1'
tRp2073
sS'/home/postma/In_progress/mfs_classifier/resources/wsd_corpora/semeval2015_task13_en/1.naf---t855'
p2074
g3
(g4
(S'S1'
I0
I1
tRp2075
(I3
S'|'
NNNI1
I1
I0
tbS'0'
tRp2076
sS'/home/postma/In_progress/mfs_classifier/resources/wsd_corpora/semeval2015_task13_en/1.naf---t854'
p2077
g3
(g4
(S'S1'
I0
I1
tRp2078
(I3
S'|'
NNNI1
I1
I0
tbS'1'
tRp2079
sS'/home/postma/In_progress/mfs_classifier/resources/wsd_corpora/semeval2015_task13_en/1.naf---t287'
p2080
g3
(g4
(S'S1'
I0
I1
tRp2081
(I3
S'|'
NNNI1
I1
I0
tbS'1'
tRp2082
sS'/home/postma/In_progress/mfs_classifier/resources/wsd_corpora/semeval2015_task13_en/2.naf---t613'
p2083
g3
(g4
(S'S1'
I0
I1
tRp2084
(I3
S'|'
NNNI1
I1
I0
tbS'1'
tRp2085
sS'/home/postma/In_progress/mfs_classifier/resources/wsd_corpora/semeval2015_task13_en/1.naf---t282'
p2086
g3
(g4
(S'S1'
I0
I1
tRp2087
(I3
S'|'
NNNI1
I1
I0
tbS'0'
tRp2088
sS'/home/postma/In_progress/mfs_classifier/resources/wsd_corpora/semeval2015_task13_en/2.naf---t619'
p2089
g3
(g4
(S'S1'
I0
I1
tRp2090
(I3
S'|'
NNNI1
I1
I0
tbS'1'
tRp2091
sS'/home/postma/In_progress/mfs_classifier/resources/wsd_corpora/semeval2015_task13_en/2.naf---t168'
p2092
g3
(g4
(S'S1'
I0
I1
tRp2093
(I3
S'|'
NNNI1
I1
I0
tbS'0'
tRp2094
sS'/home/postma/In_progress/mfs_classifier/resources/wsd_corpora/semeval2015_task13_en/1.naf---t738'
p2095
g3
(g4
(S'S1'
I0
I1
tRp2096
(I3
S'|'
NNNI1
I1
I0
tbS'1'
tRp2097
sS'/home/postma/In_progress/mfs_classifier/resources/wsd_corpora/semeval2015_task13_en/2.naf---t162'
p2098
g3
(g4
(S'S1'
I0
I1
tRp2099
(I3
S'|'
NNNI1
I1
I0
tbS'1'
tRp2100
sS'/home/postma/In_progress/mfs_classifier/resources/wsd_corpora/semeval2015_task13_en/3.naf---t414'
p2101
g3
(g4
(S'S1'
I0
I1
tRp2102
(I3
S'|'
NNNI1
I1
I0
tbS'1'
tRp2103
sS'/home/postma/In_progress/mfs_classifier/resources/wsd_corpora/semeval2015_task13_en/3.naf---t417'
p2104
g3
(g4
(S'S1'
I0
I1
tRp2105
(I3
S'|'
NNNI1
I1
I0
tbS'1'
tRp2106
sS'/home/postma/In_progress/mfs_classifier/resources/wsd_corpora/semeval2015_task13_en/1.naf---t735'
p2107
g3
(g4
(S'S1'
I0
I1
tRp2108
(I3
S'|'
NNNI1
I1
I0
tbS'1'
tRp2109
sS'/home/postma/In_progress/mfs_classifier/resources/wsd_corpora/semeval2015_task13_en/1.naf---t733'
p2110
g3
(g4
(S'S1'
I0
I1
tRp2111
(I3
S'|'
NNNI1
I1
I0
tbS'1'
tRp2112
sS'/home/postma/In_progress/mfs_classifier/resources/wsd_corpora/semeval2015_task13_en/4.naf---t194'
p2113
g3
(g4
(S'S1'
I0
I1
tRp2114
(I3
S'|'
NNNI1
I1
I0
tbS'1'
tRp2115
sS'/home/postma/In_progress/mfs_classifier/resources/wsd_corpora/semeval2015_task13_en/3.naf---t412'
p2116
g3
(g4
(S'S1'
I0
I1
tRp2117
(I3
S'|'
NNNI1
I1
I0
tbS'1'
tRp2118
sS'/home/postma/In_progress/mfs_classifier/resources/wsd_corpora/semeval2015_task13_en/2.naf---t542'
p2119
g3
(g4
(S'S1'
I0
I1
tRp2120
(I3
S'|'
NNNI1
I1
I0
tbS'1'
tRp2121
sS'/home/postma/In_progress/mfs_classifier/resources/wsd_corpora/semeval2015_task13_en/3.naf---t338'
p2122
g3
(g4
(S'S1'
I0
I1
tRp2123
(I3
S'|'
NNNI1
I1
I0
tbS'0'
tRp2124
sS'/home/postma/In_progress/mfs_classifier/resources/wsd_corpora/semeval2015_task13_en/2.naf---t545'
p2125
g3
(g4
(S'S1'
I0
I1
tRp2126
(I3
S'|'
NNNI1
I1
I0
tbS'1'
tRp2127
sS'/home/postma/In_progress/mfs_classifier/resources/wsd_corpora/semeval2015_task13_en/2.naf---t548'
p2128
g3
(g4
(S'S1'
I0
I1
tRp2129
(I3
S'|'
NNNI1
I1
I0
tbS'1'
tRp2130
sS'/home/postma/In_progress/mfs_classifier/resources/wsd_corpora/semeval2015_task13_en/3.naf---t335'
p2131
g3
(g4
(S'S1'
I0
I1
tRp2132
(I3
S'|'
NNNI1
I1
I0
tbS'1'
tRp2133
sS'/home/postma/In_progress/mfs_classifier/resources/wsd_corpora/semeval2015_task13_en/2.naf---t222'
p2134
g3
(g4
(S'S1'
I0
I1
tRp2135
(I3
S'|'
NNNI1
I1
I0
tbS'1'
tRp2136
sS'/home/postma/In_progress/mfs_classifier/resources/wsd_corpora/semeval2015_task13_en/2.naf---t224'
p2137
g3
(g4
(S'S1'
I0
I1
tRp2138
(I3
S'|'
NNNI1
I1
I0
tbS'1'
tRp2139
sS'/home/postma/In_progress/mfs_classifier/resources/wsd_corpora/semeval2015_task13_en/3.naf---t332'
p2140
g3
(g4
(S'S1'
I0
I1
tRp2141
(I3
S'|'
NNNI1
I1
I0
tbS'1'
tRp2142
sS'/home/postma/In_progress/mfs_classifier/resources/wsd_corpora/semeval2015_task13_en/3.naf---t41'
p2143
g3
(g4
(S'S1'
I0
I1
tRp2144
(I3
S'|'
NNNI1
I1
I0
tbS'1'
tRp2145
sS'/home/postma/In_progress/mfs_classifier/resources/wsd_corpora/semeval2015_task13_en/3.naf---t44'
p2146
g3
(g4
(S'S1'
I0
I1
tRp2147
(I3
S'|'
NNNI1
I1
I0
tbS'1'
tRp2148
sS'/home/postma/In_progress/mfs_classifier/resources/wsd_corpora/semeval2015_task13_en/3.naf---t47'
p2149
g3
(g4
(S'S1'
I0
I1
tRp2150
(I3
S'|'
NNNI1
I1
I0
tbS'1'
tRp2151
sS'/home/postma/In_progress/mfs_classifier/resources/wsd_corpora/semeval2015_task13_en/3.naf---t46'
p2152
g3
(g4
(S'S1'
I0
I1
tRp2153
(I3
S'|'
NNNI1
I1
I0
tbS'1'
tRp2154
sS'/home/postma/In_progress/mfs_classifier/resources/wsd_corpora/semeval2015_task13_en/3.naf---t263'
p2155
g3
(g4
(S'S1'
I0
I1
tRp2156
(I3
S'|'
NNNI1
I1
I0
tbS'1'
tRp2157
sS'/home/postma/In_progress/mfs_classifier/resources/wsd_corpora/semeval2015_task13_en/1.naf---t109'
p2158
g3
(g4
(S'S1'
I0
I1
tRp2159
(I3
S'|'
NNNI1
I1
I0
tbS'1'
tRp2160
sS'/home/postma/In_progress/mfs_classifier/resources/wsd_corpora/semeval2015_task13_en/1.naf---t61'
p2161
g3
(g4
(S'S1'
I0
I1
tRp2162
(I3
S'|'
NNNI1
I1
I0
tbS'1'
tRp2163
sS'/home/postma/In_progress/mfs_classifier/resources/wsd_corpora/semeval2015_task13_en/1.naf---t62'
p2164
g3
(g4
(S'S1'
I0
I1
tRp2165
(I3
S'|'
NNNI1
I1
I0
tbS'1'
tRp2166
sS'/home/postma/In_progress/mfs_classifier/resources/wsd_corpora/semeval2015_task13_en/1.naf---t65'
p2167
g3
(g4
(S'S1'
I0
I1
tRp2168
(I3
S'|'
NNNI1
I1
I0
tbS'0'
tRp2169
sS'/home/postma/In_progress/mfs_classifier/resources/wsd_corpora/semeval2015_task13_en/1.naf---t90'
p2170
g3
(g4
(S'S1'
I0
I1
tRp2171
(I3
S'|'
NNNI1
I1
I0
tbS'1'
tRp2172
sS'/home/postma/In_progress/mfs_classifier/resources/wsd_corpora/semeval2015_task13_en/3.naf---t237'
p2173
g3
(g4
(S'S1'
I0
I1
tRp2174
(I3
S'|'
NNNI1
I1
I0
tbS'1'
tRp2175
sS'/home/postma/In_progress/mfs_classifier/resources/wsd_corpora/semeval2015_task13_en/1.naf---t516'
p2176
g3
(g4
(S'S1'
I0
I1
tRp2177
(I3
S'|'
NNNI1
I1
I0
tbS'1'
tRp2178
sS'/home/postma/In_progress/mfs_classifier/resources/wsd_corpora/semeval2015_task13_en/1.naf---t459'
p2179
g3
(g4
(S'S1'
I0
I1
tRp2180
(I3
S'|'
NNNI1
I1
I0
tbS'1'
tRp2181
sS'/home/postma/In_progress/mfs_classifier/resources/wsd_corpora/semeval2015_task13_en/1.naf---t458'
p2182
g3
(g4
(S'S1'
I0
I1
tRp2183
(I3
S'|'
NNNI1
I1
I0
tbS'1'
tRp2184
sS'/home/postma/In_progress/mfs_classifier/resources/wsd_corpora/semeval2015_task13_en/2.naf---t435'
p2185
g3
(g4
(S'S1'
I0
I1
tRp2186
(I3
S'|'
NNNI1
I1
I0
tbS'1'
tRp2187
sS'/home/postma/In_progress/mfs_classifier/resources/wsd_corpora/semeval2015_task13_en/3.naf---t185'
p2188
g3
(g4
(S'S1'
I0
I1
tRp2189
(I3
S'|'
NNNI1
I1
I0
tbS'0'
tRp2190
sS'/home/postma/In_progress/mfs_classifier/resources/wsd_corpora/semeval2015_task13_en/1.naf---t453'
p2191
g3
(g4
(S'S1'
I0
I1
tRp2192
(I3
S'|'
NNNI1
I1
I0
tbS'1'
tRp2193
sS'/home/postma/In_progress/mfs_classifier/resources/wsd_corpora/semeval2015_task13_en/2.naf---t431'
p2194
g3
(g4
(S'S1'
I0
I1
tRp2195
(I3
S'|'
NNNI1
I1
I0
tbS'1'
tRp2196
sS'/home/postma/In_progress/mfs_classifier/resources/wsd_corpora/semeval2015_task13_en/1.naf---t451'
p2197
g3
(g4
(S'S1'
I0
I1
tRp2198
(I3
S'|'
NNNI1
I1
I0
tbS'1'
tRp2199
sS'/home/postma/In_progress/mfs_classifier/resources/wsd_corpora/semeval2015_task13_en/2.naf---t433'
p2200
g3
(g4
(S'S1'
I0
I1
tRp2201
(I3
S'|'
NNNI1
I1
I0
tbS'1'
tRp2202
sS'/home/postma/In_progress/mfs_classifier/resources/wsd_corpora/semeval2015_task13_en/2.naf---t180'
p2203
g3
(g4
(S'S1'
I0
I1
tRp2204
(I3
S'|'
NNNI1
I1
I0
tbS'1'
tRp2205
sS'/home/postma/In_progress/mfs_classifier/resources/wsd_corpora/semeval2015_task13_en/2.naf---t181'
p2206
g3
(g4
(S'S1'
I0
I1
tRp2207
(I3
S'|'
NNNI1
I1
I0
tbS'1'
tRp2208
sS'/home/postma/In_progress/mfs_classifier/resources/wsd_corpora/semeval2015_task13_en/1.naf---t657'
p2209
g3
(g4
(S'S1'
I0
I1
tRp2210
(I3
S'|'
NNNI1
I1
I0
tbS'0'
tRp2211
sS'/home/postma/In_progress/mfs_classifier/resources/wsd_corpora/semeval2015_task13_en/3.naf---t269'
p2212
g3
(g4
(S'S1'
I0
I1
tRp2213
(I3
S'|'
NNNI1
I1
I0
tbS'1'
tRp2214
sS'/home/postma/In_progress/mfs_classifier/resources/wsd_corpora/semeval2015_task13_en/4.naf---t222'
p2215
g3
(g4
(S'S1'
I0
I1
tRp2216
(I3
S'|'
NNNI1
I1
I0
tbS'1'
tRp2217
sS'/home/postma/In_progress/mfs_classifier/resources/wsd_corpora/semeval2015_task13_en/1.naf---t413'
p2218
g3
(g4
(S'S1'
I0
I1
tRp2219
(I3
S'|'
NNNI1
I1
I0
tbS'1'
tRp2220
sS'/home/postma/In_progress/mfs_classifier/resources/wsd_corpora/semeval2015_task13_en/4.naf---t225'
p2221
g3
(g4
(S'S1'
I0
I1
tRp2222
(I3
S'|'
NNNI1
I1
I0
tbS'0'
tRp2223
sS'/home/postma/In_progress/mfs_classifier/resources/wsd_corpora/semeval2015_task13_en/2.naf---t16'
p2224
g3
(g4
(S'S1'
I0
I1
tRp2225
(I3
S'|'
NNNI1
I1
I0
tbS'1'
tRp2226
sS'/home/postma/In_progress/mfs_classifier/resources/wsd_corpora/semeval2015_task13_en/4.naf---t344'
p2227
g3
(g4
(S'S1'
I0
I1
tRp2228
(I3
S'|'
NNNI1
I1
I0
tbS'1'
tRp2229
sS'/home/postma/In_progress/mfs_classifier/resources/wsd_corpora/semeval2015_task13_en/4.naf---t340'
p2230
g3
(g4
(S'S1'
I0
I1
tRp2231
(I3
S'|'
NNNI1
I1
I0
tbS'1'
tRp2232
sS'/home/postma/In_progress/mfs_classifier/resources/wsd_corpora/semeval2015_task13_en/2.naf---t21'
p2233
g3
(g4
(S'S1'
I0
I1
tRp2234
(I3
S'|'
NNNI1
I1
I0
tbS'0'
tRp2235
sS'/home/postma/In_progress/mfs_classifier/resources/wsd_corpora/semeval2015_task13_en/2.naf---t535'
p2236
g3
(g4
(S'S1'
I0
I1
tRp2237
(I3
S'|'
NNNI1
I1
I0
tbS'1'
tRp2238
sS'/home/postma/In_progress/mfs_classifier/resources/wsd_corpora/semeval2015_task13_en/2.naf---t534'
p2239
g3
(g4
(S'S1'
I0
I1
tRp2240
(I3
S'|'
NNNI1
I1
I0
tbS'1'
tRp2241
sS'/home/postma/In_progress/mfs_classifier/resources/wsd_corpora/semeval2015_task13_en/2.naf---t537'
p2242
g3
(g4
(S'S1'
I0
I1
tRp2243
(I3
S'|'
NNNI1
I1
I0
tbS'1'
tRp2244
sS'/home/postma/In_progress/mfs_classifier/resources/wsd_corpora/semeval2015_task13_en/2.naf---t531'
p2245
g3
(g4
(S'S1'
I0
I1
tRp2246
(I3
S'|'
NNNI1
I1
I0
tbS'1'
tRp2247
sS'/home/postma/In_progress/mfs_classifier/resources/wsd_corpora/semeval2015_task13_en/1.naf---t730'
p2248
g3
(g4
(S'S1'
I0
I1
tRp2249
(I3
S'|'
NNNI1
I1
I0
tbS'1'
tRp2250
sS'/home/postma/In_progress/mfs_classifier/resources/wsd_corpora/semeval2015_task13_en/2.naf---t533'
p2251
g3
(g4
(S'S1'
I0
I1
tRp2252
(I3
S'|'
NNNI1
I1
I0
tbS'1'
tRp2253
sS'/home/postma/In_progress/mfs_classifier/resources/wsd_corpora/semeval2015_task13_en/1.naf---t354'
p2254
g3
(g4
(S'S1'
I0
I1
tRp2255
(I3
S'|'
NNNI1
I1
I0
tbS'1'
tRp2256
sS'/home/postma/In_progress/mfs_classifier/resources/wsd_corpora/semeval2015_task13_en/1.naf---t727'
p2257
g3
(g4
(S'S1'
I0
I1
tRp2258
(I3
S'|'
NNNI1
I1
I0
tbS'1'
tRp2259
sS'/home/postma/In_progress/mfs_classifier/resources/wsd_corpora/semeval2015_task13_en/2.naf---t539'
p2260
g3
(g4
(S'S1'
I0
I1
tRp2261
(I3
S'|'
NNNI1
I1
I0
tbS'1'
tRp2262
sS'/home/postma/In_progress/mfs_classifier/resources/wsd_corpora/semeval2015_task13_en/3.naf---t463'
p2263
g3
(g4
(S'S1'
I0
I1
tRp2264
(I3
S'|'
NNNI1
I1
I0
tbS'1'
tRp2265
sS'/home/postma/In_progress/mfs_classifier/resources/wsd_corpora/semeval2015_task13_en/3.naf---t234'
p2266
g3
(g4
(S'S1'
I0
I1
tRp2267
(I3
S'|'
NNNI1
I1
I0
tbS'1'
tRp2268
sS'/home/postma/In_progress/mfs_classifier/resources/wsd_corpora/semeval2015_task13_en/4.naf---t188'
p2269
g3
(g4
(S'S1'
I0
I1
tRp2270
(I3
S'|'
NNNI1
I1
I0
tbS'1'
tRp2271
sS'/home/postma/In_progress/mfs_classifier/resources/wsd_corpora/semeval2015_task13_en/2.naf---t426'
p2272
g3
(g4
(S'S1'
I0
I1
tRp2273
(I3
S'|'
NNNI1
I1
I0
tbS'1'
tRp2274
sS'/home/postma/In_progress/mfs_classifier/resources/wsd_corpora/semeval2015_task13_en/1.naf---t254'
p2275
g3
(g4
(S'S1'
I0
I1
tRp2276
(I3
S'|'
NNNI1
I1
I0
tbS'0'
tRp2277
sS'/home/postma/In_progress/mfs_classifier/resources/wsd_corpora/semeval2015_task13_en/2.naf---t489'
p2278
g3
(g4
(S'S1'
I0
I1
tRp2279
(I3
S'|'
NNNI1
I1
I0
tbS'1'
tRp2280
sS'/home/postma/In_progress/mfs_classifier/resources/wsd_corpora/semeval2015_task13_en/2.naf---t485'
p2281
g3
(g4
(S'S1'
I0
I1
tRp2282
(I3
S'|'
NNNI1
I1
I0
tbS'0'
tRp2283
sS'/home/postma/In_progress/mfs_classifier/resources/wsd_corpora/semeval2015_task13_en/1.naf---t32'
p2284
g3
(g4
(S'S1'
I0
I1
tRp2285
(I3
S'|'
NNNI1
I1
I0
tbS'1'
tRp2286
sS'/home/postma/In_progress/mfs_classifier/resources/wsd_corpora/semeval2015_task13_en/4.naf---t182'
p2287
g3
(g4
(S'S1'
I0
I1
tRp2288
(I3
S'|'
NNNI1
I1
I0
tbS'0'
tRp2289
sS'/home/postma/In_progress/mfs_classifier/resources/wsd_corpora/semeval2015_task13_en/2.naf---t132'
p2290
g3
(g4
(S'S1'
I0
I1
tRp2291
(I3
S'|'
NNNI1
I1
I0
tbS'0'
tRp2292
sS'/home/postma/In_progress/mfs_classifier/resources/wsd_corpora/semeval2015_task13_en/3.naf---t420'
p2293
g3
(g4
(S'S1'
I0
I1
tRp2294
(I3
S'|'
NNNI1
I1
I0
tbS'1'
tRp2295
sS'/home/postma/In_progress/mfs_classifier/resources/wsd_corpora/semeval2015_task13_en/2.naf---t136'
p2296
g3
(g4
(S'S1'
I0
I1
tRp2297
(I3
S'|'
NNNI1
I1
I0
tbS'0'
tRp2298
sS'/home/postma/In_progress/mfs_classifier/resources/wsd_corpora/semeval2015_task13_en/2.naf---t139'
p2299
g3
(g4
(S'S1'
I0
I1
tRp2300
(I3
S'|'
NNNI1
I1
I0
tbS'1'
tRp2301
sS'/home/postma/In_progress/mfs_classifier/resources/wsd_corpora/semeval2015_task13_en/1.naf---t317'
p2302
g3
(g4
(S'S1'
I0
I1
tRp2303
(I3
S'|'
NNNI1
I1
I0
tbS'1'
tRp2304
sS'/home/postma/In_progress/mfs_classifier/resources/wsd_corpora/semeval2015_task13_en/3.naf---t428'
p2305
g3
(g4
(S'S1'
I0
I1
tRp2306
(I3
S'|'
NNNI1
I1
I0
tbS'1'
tRp2307
sS'/home/postma/In_progress/mfs_classifier/resources/wsd_corpora/semeval2015_task13_en/1.naf---t312'
p2308
g3
(g4
(S'S1'
I0
I1
tRp2309
(I3
S'|'
NNNI1
I1
I0
tbS'1'
tRp2310
sS'/home/postma/In_progress/mfs_classifier/resources/wsd_corpora/semeval2015_task13_en/4.naf---t27'
p2311
g3
(g4
(S'S1'
I0
I1
tRp2312
(I3
S'|'
NNNI1
I1
I0
tbS'1'
tRp2313
sS'/home/postma/In_progress/mfs_classifier/resources/wsd_corpora/semeval2015_task13_en/3.naf---t244'
p2314
g3
(g4
(S'S1'
I0
I1
tRp2315
(I3
S'|'
NNNI1
I1
I0
tbS'1'
tRp2316
sS'/home/postma/In_progress/mfs_classifier/resources/wsd_corpora/semeval2015_task13_en/3.naf---t248'
p2317
g3
(g4
(S'S1'
I0
I1
tRp2318
(I3
S'|'
NNNI1
I1
I0
tbS'1'
tRp2319
sS'/home/postma/In_progress/mfs_classifier/resources/wsd_corpora/semeval2015_task13_en/2.naf---t117'
p2320
g3
(g4
(S'S1'
I0
I1
tRp2321
(I3
S'|'
NNNI1
I1
I0
tbS'1'
tRp2322
sS'/home/postma/In_progress/mfs_classifier/resources/wsd_corpora/semeval2015_task13_en/2.naf---t330'
p2323
g3
(g4
(S'S1'
I0
I1
tRp2324
(I3
S'|'
NNNI1
I1
I0
tbS'1'
tRp2325
sS'/home/postma/In_progress/mfs_classifier/resources/wsd_corpora/semeval2015_task13_en/3.naf---t524'
p2326
g3
(g4
(S'S1'
I0
I1
tRp2327
(I3
S'|'
NNNI1
I1
I0
tbS'1'
tRp2328
sS'/home/postma/In_progress/mfs_classifier/resources/wsd_corpora/semeval2015_task13_en/3.naf---t527'
p2329
g3
(g4
(S'S1'
I0
I1
tRp2330
(I3
S'|'
NNNI1
I1
I0
tbS'1'
tRp2331
sS'/home/postma/In_progress/mfs_classifier/resources/wsd_corpora/semeval2015_task13_en/4.naf---t93'
p2332
g3
(g4
(S'S1'
I0
I1
tRp2333
(I3
S'|'
NNNI1
I1
I0
tbS'1'
tRp2334
sS'/home/postma/In_progress/mfs_classifier/resources/wsd_corpora/semeval2015_task13_en/3.naf---t440'
p2335
g3
(g4
(S'S1'
I0
I1
tRp2336
(I3
S'|'
NNNI1
I1
I0
tbS'1'
tRp2337
sS'/home/postma/In_progress/mfs_classifier/resources/wsd_corpora/semeval2015_task13_en/4.naf---t97'
p2338
g3
(g4
(S'S1'
I0
I1
tRp2339
(I3
S'|'
NNNI1
I1
I0
tbS'1'
tRp2340
sS'/home/postma/In_progress/mfs_classifier/resources/wsd_corpora/semeval2015_task13_en/1.naf---t481'
p2341
g3
(g4
(S'S1'
I0
I1
tRp2342
(I3
S'|'
NNNI1
I1
I0
tbS'0'
tRp2343
sS'/home/postma/In_progress/mfs_classifier/resources/wsd_corpora/semeval2015_task13_en/4.naf---t23'
p2344
g3
(g4
(S'S1'
I0
I1
tRp2345
(I3
S'|'
NNNI1
I1
I0
tbS'1'
tRp2346
sS'/home/postma/In_progress/mfs_classifier/resources/wsd_corpora/semeval2015_task13_en/1.naf---t482'
p2347
g3
(g4
(S'S1'
I0
I1
tRp2348
(I3
S'|'
NNNI1
I1
I0
tbS'1'
tRp2349
sS'/home/postma/In_progress/mfs_classifier/resources/wsd_corpora/semeval2015_task13_en/3.naf---t366'
p2350
g3
(g4
(S'S1'
I0
I1
tRp2351
(I3
S'|'
NNNI1
I1
I0
tbS'0'
tRp2352
sS'/home/postma/In_progress/mfs_classifier/resources/wsd_corpora/semeval2015_task13_en/4.naf---t143'
p2353
g3
(g4
(S'S1'
I0
I1
tRp2354
(I3
S'|'
NNNI1
I1
I0
tbS'1'
tRp2355
sS'/home/postma/In_progress/mfs_classifier/resources/wsd_corpora/semeval2015_task13_en/1.naf---t819'
p2356
g3
(g4
(S'S1'
I0
I1
tRp2357
(I3
S'|'
NNNI1
I1
I0
tbS'1'
tRp2358
sS'/home/postma/In_progress/mfs_classifier/resources/wsd_corpora/semeval2015_task13_en/1.naf---t772'
p2359
g3
(g4
(S'S1'
I0
I1
tRp2360
(I3
S'|'
NNNI1
I1
I0
tbS'1'
tRp2361
sS'/home/postma/In_progress/mfs_classifier/resources/wsd_corpora/semeval2015_task13_en/1.naf---t813'
p2362
g3
(g4
(S'S1'
I0
I1
tRp2363
(I3
S'|'
NNNI1
I1
I0
tbS'1'
tRp2364
sS'/home/postma/In_progress/mfs_classifier/resources/wsd_corpora/semeval2015_task13_en/1.naf---t777'
p2365
g3
(g4
(S'S1'
I0
I1
tRp2366
(I3
S'|'
NNNI1
I1
I0
tbS'0'
tRp2367
sS'/home/postma/In_progress/mfs_classifier/resources/wsd_corpora/semeval2015_task13_en/1.naf---t811'
p2368
g3
(g4
(S'S1'
I0
I1
tRp2369
(I3
S'|'
NNNI1
I1
I0
tbS'1'
tRp2370
sS'/home/postma/In_progress/mfs_classifier/resources/wsd_corpora/semeval2015_task13_en/1.naf---t775'
p2371
g3
(g4
(S'S1'
I0
I1
tRp2372
(I3
S'|'
NNNI1
I1
I0
tbS'1'
tRp2373
sS'/home/postma/In_progress/mfs_classifier/resources/wsd_corpora/semeval2015_task13_en/2.naf---t324'
p2374
g3
(g4
(S'S1'
I0
I1
tRp2375
(I3
S'|'
NNNI1
I1
I0
tbS'1'
tRp2376
sS'/home/postma/In_progress/mfs_classifier/resources/wsd_corpora/semeval2015_task13_en/2.naf---t325'
p2377
g3
(g4
(S'S1'
I0
I1
tRp2378
(I3
S'|'
NNNI1
I1
I0
tbS'1'
tRp2379
sS'/home/postma/In_progress/mfs_classifier/resources/wsd_corpora/semeval2015_task13_en/1.naf---t851'
p2380
g3
(g4
(S'S1'
I0
I1
tRp2381
(I3
S'|'
NNNI1
I1
I0
tbS'1'
tRp2382
sS'/home/postma/In_progress/mfs_classifier/resources/wsd_corpora/semeval2015_task13_en/1.naf---t170'
p2383
g3
(g4
(S'S1'
I0
I1
tRp2384
(I3
S'|'
NNNI1
I1
I0
tbS'1'
tRp2385
sS'/home/postma/In_progress/mfs_classifier/resources/wsd_corpora/semeval2015_task13_en/1.naf---t177'
p2386
g3
(g4
(S'S1'
I0
I1
tRp2387
(I3
S'|'
NNNI1
I1
I0
tbS'0'
tRp2388
sS'/home/postma/In_progress/mfs_classifier/resources/wsd_corpora/semeval2015_task13_en/2.naf---t463'
p2389
g3
(g4
(S'S1'
I0
I1
tRp2390
(I3
S'|'
NNNI1
I1
I0
tbS'1'
tRp2391
sS'/home/postma/In_progress/mfs_classifier/resources/wsd_corpora/semeval2015_task13_en/1.naf---t424'
p2392
g3
(g4
(S'S1'
I0
I1
tRp2393
(I3
S'|'
NNNI1
I1
I0
tbS'1'
tRp2394
sS'/home/postma/In_progress/mfs_classifier/resources/wsd_corpora/semeval2015_task13_en/1.naf---t425'
p2395
g3
(g4
(S'S1'
I0
I1
tRp2396
(I3
S'|'
NNNI1
I1
I0
tbS'1'
tRp2397
sS'/home/postma/In_progress/mfs_classifier/resources/wsd_corpora/semeval2015_task13_en/2.naf---t509'
p2398
g3
(g4
(S'S1'
I0
I1
tRp2399
(I3
S'|'
NNNI1
I1
I0
tbS'0'
tRp2400
sS'/home/postma/In_progress/mfs_classifier/resources/wsd_corpora/semeval2015_task13_en/1.naf---t420'
p2401
g3
(g4
(S'S1'
I0
I1
tRp2402
(I3
S'|'
NNNI1
I1
I0
tbS'1'
tRp2403
sS'/home/postma/In_progress/mfs_classifier/resources/wsd_corpora/semeval2015_task13_en/2.naf---t85'
p2404
g3
(g4
(S'S1'
I0
I1
tRp2405
(I3
S'|'
NNNI1
I1
I0
tbS'1'
tRp2406
sS'/home/postma/In_progress/mfs_classifier/resources/wsd_corpora/semeval2015_task13_en/2.naf---t86'
p2407
g3
(g4
(S'S1'
I0
I1
tRp2408
(I3
S'|'
NNNI1
I1
I0
tbS'1'
tRp2409
sS'/home/postma/In_progress/mfs_classifier/resources/wsd_corpora/semeval2015_task13_en/2.naf---t468'
p2410
g3
(g4
(S'S1'
I0
I1
tRp2411
(I3
S'|'
NNNI1
I1
I0
tbS'1'
tRp2412
sS'/home/postma/In_progress/mfs_classifier/resources/wsd_corpora/semeval2015_task13_en/2.naf---t80'
p2413
g3
(g4
(S'S1'
I0
I1
tRp2414
(I3
S'|'
NNNI1
I1
I0
tbS'1'
tRp2415
sS'/home/postma/In_progress/mfs_classifier/resources/wsd_corpora/semeval2015_task13_en/2.naf---t501'
p2416
g3
(g4
(S'S1'
I0
I1
tRp2417
(I3
S'|'
NNNI1
I1
I0
tbS'1'
tRp2418
sS'/home/postma/In_progress/mfs_classifier/resources/wsd_corpora/semeval2015_task13_en/1.naf---t428'
p2419
g3
(g4
(S'S1'
I0
I1
tRp2420
(I3
S'|'
NNNI1
I1
I0
tbS'1'
tRp2421
sS'/home/postma/In_progress/mfs_classifier/resources/wsd_corpora/semeval2015_task13_en/2.naf---t83'
p2422
g3
(g4
(S'S1'
I0
I1
tRp2423
(I3
S'|'
NNNI1
I1
I0
tbS'1'
tRp2424
sS'/home/postma/In_progress/mfs_classifier/resources/wsd_corpora/semeval2015_task13_en/4.naf---t388'
p2425
g3
(g4
(S'S1'
I0
I1
tRp2426
(I3
S'|'
NNNI1
I1
I0
tbS'1'
tRp2427
sS'/home/postma/In_progress/mfs_classifier/resources/wsd_corpora/semeval2015_task13_en/3.naf---t383'
p2428
g3
(g4
(S'S1'
I0
I1
tRp2429
(I3
S'|'
NNNI1
I1
I0
tbS'1'
tRp2430
sS'/home/postma/In_progress/mfs_classifier/resources/wsd_corpora/semeval2015_task13_en/4.naf---t380'
p2431
g3
(g4
(S'S1'
I0
I1
tRp2432
(I3
S'|'
NNNI1
I1
I0
tbS'1'
tRp2433
sS'/home/postma/In_progress/mfs_classifier/resources/wsd_corpora/semeval2015_task13_en/4.naf---t384'
p2434
g3
(g4
(S'S1'
I0
I1
tRp2435
(I3
S'|'
NNNI1
I1
I0
tbS'1'
tRp2436
sS'/home/postma/In_progress/mfs_classifier/resources/wsd_corpora/semeval2015_task13_en/4.naf---t386'
p2437
g3
(g4
(S'S1'
I0
I1
tRp2438
(I3
S'|'
NNNI1
I1
I0
tbS'0'
tRp2439
sS'/home/postma/In_progress/mfs_classifier/resources/wsd_corpora/semeval2015_task13_en/2.naf---t556'
p2440
g3
(g4
(S'S1'
I0
I1
tRp2441
(I3
S'|'
NNNI1
I1
I0
tbS'1'
tRp2442
sS'/home/postma/In_progress/mfs_classifier/resources/wsd_corpora/semeval2015_task13_en/4.naf---t313'
p2443
g3
(g4
(S'S1'
I0
I1
tRp2444
(I3
S'|'
NNNI1
I1
I0
tbS'0'
tRp2445
sS'/home/postma/In_progress/mfs_classifier/resources/wsd_corpora/semeval2015_task13_en/1.naf---t44'
p2446
g3
(g4
(S'S1'
I0
I1
tRp2447
(I3
S'|'
NNNI1
I1
I0
tbS'0'
tRp2448
sS'/home/postma/In_progress/mfs_classifier/resources/wsd_corpora/semeval2015_task13_en/2.naf---t264'
p2449
g3
(g4
(S'S1'
I0
I1
tRp2450
(I3
S'|'
NNNI1
I1
I0
tbS'1'
tRp2451
sS'/home/postma/In_progress/mfs_classifier/resources/wsd_corpora/semeval2015_task13_en/3.naf---t148'
p2452
g3
(g4
(S'S1'
I0
I1
tRp2453
(I3
S'|'
NNNI1
I1
I0
tbS'1'
tRp2454
sS'/home/postma/In_progress/mfs_classifier/resources/wsd_corpora/semeval2015_task13_en/2.naf---t261'
p2455
g3
(g4
(S'S1'
I0
I1
tRp2456
(I3
S'|'
NNNI1
I1
I0
tbS'1'
tRp2457
sS'/home/postma/In_progress/mfs_classifier/resources/wsd_corpora/semeval2015_task13_en/2.naf---t263'
p2458
g3
(g4
(S'S1'
I0
I1
tRp2459
(I3
S'|'
NNNI1
I1
I0
tbS'1'
tRp2460
sS'/home/postma/In_progress/mfs_classifier/resources/wsd_corpora/semeval2015_task13_en/2.naf---t127'
p2461
g3
(g4
(S'S1'
I0
I1
tRp2462
(I3
S'|'
NNNI1
I1
I0
tbS'1'
tRp2463
sS'/home/postma/In_progress/mfs_classifier/resources/wsd_corpora/semeval2015_task13_en/1.naf---t25'
p2464
g3
(g4
(S'S1'
I0
I1
tRp2465
(I3
S'|'
NNNI1
I1
I0
tbS'1'
tRp2466
sS'/home/postma/In_progress/mfs_classifier/resources/wsd_corpora/semeval2015_task13_en/1.naf---t26'
p2467
g3
(g4
(S'S1'
I0
I1
tRp2468
(I3
S'|'
NNNI1
I1
I0
tbS'1'
tRp2469
sS'/home/postma/In_progress/mfs_classifier/resources/wsd_corpora/semeval2015_task13_en/1.naf---t20'
p2470
g3
(g4
(S'S1'
I0
I1
tRp2471
(I3
S'|'
NNNI1
I1
I0
tbS'1'
tRp2472
sS'/home/postma/In_progress/mfs_classifier/resources/wsd_corpora/semeval2015_task13_en/1.naf---t23'
p2473
g3
(g4
(S'S1'
I0
I1
tRp2474
(I3
S'|'
NNNI1
I1
I0
tbS'1'
tRp2475
sS'/home/postma/In_progress/mfs_classifier/resources/wsd_corpora/semeval2015_task13_en/1.naf---t792'
p2476
g3
(g4
(S'S1'
I0
I1
tRp2477
(I3
S'|'
NNNI1
I1
I0
tbS'1'
tRp2478
sS'/home/postma/In_progress/mfs_classifier/resources/wsd_corpora/semeval2015_task13_en/1.naf---t796'
p2479
g3
(g4
(S'S1'
I0
I1
tRp2480
(I3
S'|'
NNNI1
I1
I0
tbS'1'
tRp2481
sS'/home/postma/In_progress/mfs_classifier/resources/wsd_corpora/semeval2015_task13_en/1.naf---t651'
p2482
g3
(g4
(S'S1'
I0
I1
tRp2483
(I3
S'|'
NNNI1
I1
I0
tbS'1'
tRp2484
sS'/home/postma/In_progress/mfs_classifier/resources/wsd_corpora/semeval2015_task13_en/1.naf---t92'
p2485
g3
(g4
(S'S1'
I0
I1
tRp2486
(I3
S'|'
NNNI1
I1
I0
tbS'1'
tRp2487
sS'/home/postma/In_progress/mfs_classifier/resources/wsd_corpora/semeval2015_task13_en/1.naf---t93'
p2488
g3
(g4
(S'S1'
I0
I1
tRp2489
(I3
S'|'
NNNI1
I1
I0
tbS'1'
tRp2490
sS'/home/postma/In_progress/mfs_classifier/resources/wsd_corpora/semeval2015_task13_en/1.naf---t96'
p2491
g3
(g4
(S'S1'
I0
I1
tRp2492
(I3
S'|'
NNNI1
I1
I0
tbS'0'
tRp2493
sS'/home/postma/In_progress/mfs_classifier/resources/wsd_corpora/semeval2015_task13_en/2.naf---t123'
p2494
g3
(g4
(S'S1'
I0
I1
tRp2495
(I3
S'|'
NNNI1
I1
I0
tbS'1'
tRp2496
sS'/home/postma/In_progress/mfs_classifier/resources/wsd_corpora/semeval2015_task13_en/4.naf---t469'
p2497
g3
(g4
(S'S1'
I0
I1
tRp2498
(I3
S'|'
NNNI1
I1
I0
tbS'1'
tRp2499
sS'/home/postma/In_progress/mfs_classifier/resources/wsd_corpora/semeval2015_task13_en/4.naf---t468'
p2500
g3
(g4
(S'S1'
I0
I1
tRp2501
(I3
S'|'
NNNI1
I1
I0
tbS'1'
tRp2502
sS'/home/postma/In_progress/mfs_classifier/resources/wsd_corpora/semeval2015_task13_en/4.naf---t192'
p2503
g3
(g4
(S'S1'
I0
I1
tRp2504
(I3
S'|'
NNNI1
I1
I0
tbS'0'
tRp2505
sS'/home/postma/In_progress/mfs_classifier/resources/wsd_corpora/semeval2015_task13_en/2.naf---t19'
p2506
g3
(g4
(S'S1'
I0
I1
tRp2507
(I3
S'|'
NNNI1
I1
I0
tbS'1'
tRp2508
sS'/home/postma/In_progress/mfs_classifier/resources/wsd_corpora/semeval2015_task13_en/4.naf---t466'
p2509
g3
(g4
(S'S1'
I0
I1
tRp2510
(I3
S'|'
NNNI1
I1
I0
tbS'0'
tRp2511
sS'/home/postma/In_progress/mfs_classifier/resources/wsd_corpora/semeval2015_task13_en/4.naf---t146'
p2512
g3
(g4
(S'S1'
I0
I1
tRp2513
(I3
S'|'
NNNI1
I1
I0
tbS'0'
tRp2514
sS'/home/postma/In_progress/mfs_classifier/resources/wsd_corpora/semeval2015_task13_en/2.naf---t63'
p2515
g3
(g4
(S'S1'
I0
I1
tRp2516
(I3
S'|'
NNNI1
I1
I0
tbS'0'
tRp2517
sS'/home/postma/In_progress/mfs_classifier/resources/wsd_corpora/semeval2015_task13_en/2.naf---t60'
p2518
g3
(g4
(S'S1'
I0
I1
tRp2519
(I3
S'|'
NNNI1
I1
I0
tbS'1'
tRp2520
sS'/home/postma/In_progress/mfs_classifier/resources/wsd_corpora/semeval2015_task13_en/4.naf---t142'
p2521
g3
(g4
(S'S1'
I0
I1
tRp2522
(I3
S'|'
NNNI1
I1
I0
tbS'0'
tRp2523
sS'/home/postma/In_progress/mfs_classifier/resources/wsd_corpora/semeval2015_task13_en/3.naf---t388'
p2524
g3
(g4
(S'S1'
I0
I1
tRp2525
(I3
S'|'
NNNI1
I1
I0
tbS'1'
tRp2526
sS'/home/postma/In_progress/mfs_classifier/resources/wsd_corpora/semeval2015_task13_en/4.naf---t269'
p2527
g3
(g4
(S'S1'
I0
I1
tRp2528
(I3
S'|'
NNNI1
I1
I0
tbS'1'
tRp2529
sS'/home/postma/In_progress/mfs_classifier/resources/wsd_corpora/semeval2015_task13_en/2.naf---t65'
p2530
g3
(g4
(S'S1'
I0
I1
tRp2531
(I3
S'|'
NNNI1
I1
I0
tbS'1'
tRp2532
sS'/home/postma/In_progress/mfs_classifier/resources/wsd_corpora/semeval2015_task13_en/3.naf---t385'
p2533
g3
(g4
(S'S1'
I0
I1
tRp2534
(I3
S'|'
NNNI1
I1
I0
tbS'1'
tRp2535
sS'/home/postma/In_progress/mfs_classifier/resources/wsd_corpora/semeval2015_task13_en/4.naf---t266'
p2536
g3
(g4
(S'S1'
I0
I1
tRp2537
(I3
S'|'
NNNI1
I1
I0
tbS'1'
tRp2538
sS'/home/postma/In_progress/mfs_classifier/resources/wsd_corpora/semeval2015_task13_en/2.naf---t69'
p2539
g3
(g4
(S'S1'
I0
I1
tRp2540
(I3
S'|'
NNNI1
I1
I0
tbS'0'
tRp2541
sS'/home/postma/In_progress/mfs_classifier/resources/wsd_corpora/semeval2015_task13_en/4.naf---t262'
p2542
g3
(g4
(S'S1'
I0
I1
tRp2543
(I3
S'|'
NNNI1
I1
I0
tbS'0'
tRp2544
sS'/home/postma/In_progress/mfs_classifier/resources/wsd_corpora/semeval2015_task13_en/4.naf---t148'
p2545
g3
(g4
(S'S1'
I0
I1
tRp2546
(I3
S'|'
NNNI1
I1
I0
tbS'1'
tRp2547
sS'/home/postma/In_progress/mfs_classifier/resources/wsd_corpora/semeval2015_task13_en/4.naf---t260'
p2548
g3
(g4
(S'S1'
I0
I1
tRp2549
(I3
S'|'
NNNI1
I1
I0
tbS'1'
tRp2550
sS'/home/postma/In_progress/mfs_classifier/resources/wsd_corpora/semeval2015_task13_en/1.naf---t221'
p2551
g3
(g4
(S'S1'
I0
I1
tRp2552
(I3
S'|'
NNNI1
I1
I0
tbS'0'
tRp2553
sS'/home/postma/In_progress/mfs_classifier/resources/wsd_corpora/semeval2015_task13_en/1.naf---t550'
p2554
g3
(g4
(S'S1'
I0
I1
tRp2555
(I3
S'|'
NNNI1
I1
I0
tbS'1'
tRp2556
sS'/home/postma/In_progress/mfs_classifier/resources/wsd_corpora/semeval2015_task13_en/1.naf---t223'
p2557
g3
(g4
(S'S1'
I0
I1
tRp2558
(I3
S'|'
NNNI1
I1
I0
tbS'1'
tRp2559
sS'/home/postma/In_progress/mfs_classifier/resources/wsd_corpora/semeval2015_task13_en/1.naf---t557'
p2560
g3
(g4
(S'S1'
I0
I1
tRp2561
(I3
S'|'
NNNI1
I1
I0
tbS'1'
tRp2562
sS'/home/postma/In_progress/mfs_classifier/resources/wsd_corpora/semeval2015_task13_en/1.naf---t226'
p2563
g3
(g4
(S'S1'
I0
I1
tRp2564
(I3
S'|'
NNNI1
I1
I0
tbS'1'
tRp2565
sS'/home/postma/In_progress/mfs_classifier/resources/wsd_corpora/semeval2015_task13_en/1.naf---t491'
p2566
g3
(g4
(S'S1'
I0
I1
tRp2567
(I3
S'|'
NNNI1
I1
I0
tbS'0'
tRp2568
sS'/home/postma/In_progress/mfs_classifier/resources/wsd_corpora/semeval2015_task13_en/3.naf---t140'
p2569
g3
(g4
(S'S1'
I0
I1
tRp2570
(I3
S'|'
NNNI1
I1
I0
tbS'0'
tRp2571
sS'/home/postma/In_progress/mfs_classifier/resources/wsd_corpora/semeval2015_task13_en/1.naf---t497'
p2572
g3
(g4
(S'S1'
I0
I1
tRp2573
(I3
S'|'
NNNI1
I1
I0
tbS'1'
tRp2574
sS'/home/postma/In_progress/mfs_classifier/resources/wsd_corpora/semeval2015_task13_en/3.naf---t146'
p2575
g3
(g4
(S'S1'
I0
I1
tRp2576
(I3
S'|'
NNNI1
I1
I0
tbS'1'
tRp2577
sS'/home/postma/In_progress/mfs_classifier/resources/wsd_corpora/semeval2015_task13_en/1.naf---t494'
p2578
g3
(g4
(S'S1'
I0
I1
tRp2579
(I3
S'|'
NNNI1
I1
I0
tbS'0'
tRp2580
s(dp2581
S'FP'
p2582
F235
sS'TN'
p2583
F111
sS'num_instances'
p2584
I859
sS'TP'
p2585
F452
sS'TP_rate'
p2586
F0.88109161793372315
sS'gold'
p2587
(lp2588
S'0'
aS'1'
aS'1'
aS'1'
aS'1'
aS'1'
aS'0'
aS'1'
aS'0'
aS'1'
aS'1'
aS'1'
aS'0'
aS'1'
aS'0'
aS'0'
aS'0'
aS'0'
aS'1'
aS'0'
aS'1'
aS'0'
aS'1'
aS'0'
aS'0'
aS'0'
aS'1'
aS'0'
aS'1'
aS'0'
aS'0'
aS'1'
aS'0'
aS'1'
aS'1'
aS'0'
aS'1'
aS'0'
aS'1'
aS'1'
aS'1'
aS'1'
aS'0'
aS'0'
aS'1'
aS'0'
aS'1'
aS'1'
aS'1'
aS'0'
aS'1'
aS'0'
aS'1'
aS'1'
aS'1'
aS'0'
aS'1'
aS'0'
aS'0'
aS'0'
aS'0'
aS'0'
aS'1'
aS'1'
aS'0'
aS'0'
aS'1'
aS'1'
aS'1'
aS'0'
aS'1'
aS'1'
aS'1'
aS'1'
aS'1'
aS'0'
aS'1'
aS'1'
aS'1'
aS'1'
aS'1'
aS'1'
aS'1'
aS'1'
aS'1'
aS'0'
aS'1'
aS'0'
aS'1'
aS'1'
aS'0'
aS'0'
aS'0'
aS'1'
aS'1'
aS'0'
aS'1'
aS'0'
aS'1'
aS'0'
aS'1'
aS'1'
aS'1'
aS'1'
aS'1'
aS'0'
aS'0'
aS'1'
aS'0'
aS'1'
aS'1'
aS'1'
aS'1'
aS'1'
aS'0'
aS'1'
aS'1'
aS'1'
aS'1'
aS'1'
aS'0'
aS'1'
aS'0'
aS'0'
aS'1'
aS'0'
aS'0'
aS'0'
aS'1'
aS'0'
aS'0'
aS'1'
aS'0'
aS'0'
aS'0'
aS'0'
aS'1'
aS'1'
aS'0'
aS'0'
aS'0'
aS'0'
aS'0'
aS'0'
aS'0'
aS'1'
aS'1'
aS'0'
aS'0'
aS'0'
aS'1'
aS'1'
aS'0'
aS'0'
aS'0'
aS'1'
aS'1'
aS'0'
aS'1'
aS'1'
aS'1'
aS'1'
aS'1'
aS'0'
aS'1'
aS'0'
aS'0'
aS'0'
aS'0'
aS'1'
aS'1'
aS'0'
aS'1'
aS'1'
aS'0'
aS'0'
aS'0'
aS'1'
aS'0'
aS'1'
aS'0'
aS'1'
aS'1'
aS'1'
aS'1'
aS'1'
aS'1'
aS'1'
aS'1'
aS'0'
aS'1'
aS'1'
aS'1'
aS'0'
aS'1'
aS'1'
aS'1'
aS'0'
aS'0'
aS'0'
aS'0'
aS'1'
aS'1'
aS'1'
aS'0'
aS'0'
aS'0'
aS'1'
aS'1'
aS'0'
aS'0'
aS'1'
aS'0'
aS'1'
aS'1'
aS'1'
aS'1'
aS'1'
aS'1'
aS'1'
aS'1'
aS'0'
aS'1'
aS'1'
aS'0'
aS'1'
aS'1'
aS'1'
aS'1'
aS'1'
aS'1'
aS'0'
aS'1'
aS'1'
aS'1'
aS'1'
aS'0'
aS'1'
aS'1'
aS'1'
aS'0'
aS'1'
aS'1'
aS'0'
aS'1'
aS'0'
aS'1'
aS'1'
aS'1'
aS'1'
aS'0'
aS'0'
aS'1'
aS'1'
aS'0'
aS'0'
aS'0'
aS'1'
aS'0'
aS'1'
aS'0'
aS'1'
aS'0'
aS'0'
aS'1'
aS'1'
aS'0'
aS'0'
aS'1'
aS'1'
aS'1'
aS'1'
aS'0'
aS'1'
aS'1'
aS'1'
aS'1'
aS'1'
aS'1'
aS'1'
aS'0'
aS'1'
aS'1'
aS'1'
aS'0'
aS'0'
aS'0'
aS'0'
aS'0'
aS'0'
aS'1'
aS'1'
aS'1'
aS'1'
aS'0'
aS'1'
aS'1'
aS'0'
aS'0'
aS'1'
aS'1'
aS'1'
aS'0'
aS'1'
aS'0'
aS'1'
aS'0'
aS'0'
aS'0'
aS'0'
aS'1'
aS'0'
aS'1'
aS'1'
aS'0'
aS'1'
aS'1'
aS'1'
aS'0'
aS'1'
aS'0'
aS'1'
aS'1'
aS'1'
aS'0'
aS'1'
aS'0'
aS'1'
aS'1'
aS'1'
aS'0'
aS'1'
aS'1'
aS'0'
aS'1'
aS'0'
aS'1'
aS'0'
aS'0'
aS'0'
aS'1'
aS'1'
aS'1'
aS'1'
aS'0'
aS'1'
aS'1'
aS'0'
aS'0'
aS'1'
aS'1'
aS'1'
aS'0'
aS'0'
aS'0'
aS'1'
aS'1'
aS'0'
aS'1'
aS'0'
aS'1'
aS'0'
aS'0'
aS'1'
aS'1'
aS'1'
aS'1'
aS'1'
aS'1'
aS'1'
aS'0'
aS'1'
aS'1'
aS'0'
aS'1'
aS'1'
aS'1'
aS'1'
aS'0'
aS'1'
aS'0'
aS'0'
aS'1'
aS'0'
aS'0'
aS'1'
aS'0'
aS'1'
aS'1'
aS'0'
aS'0'
aS'0'
aS'0'
aS'0'
aS'0'
aS'1'
aS'1'
aS'1'
aS'0'
aS'1'
aS'1'
aS'1'
aS'1'
aS'0'
aS'1'
aS'0'
aS'1'
aS'1'
aS'0'
aS'0'
aS'1'
aS'0'
aS'1'
aS'1'
aS'0'
aS'0'
aS'1'
aS'1'
aS'0'
aS'1'
aS'1'
aS'1'
aS'0'
aS'1'
aS'1'
aS'0'
aS'1'
aS'1'
aS'0'
aS'0'
aS'0'
aS'1'
aS'0'
aS'1'
aS'1'
aS'1'
aS'1'
aS'1'
aS'0'
aS'1'
aS'0'
aS'1'
aS'1'
aS'0'
aS'1'
aS'1'
aS'1'
aS'0'
aS'1'
aS'1'
aS'0'
aS'1'
aS'0'
aS'1'
aS'1'
aS'1'
aS'0'
aS'1'
aS'1'
aS'1'
aS'0'
aS'1'
aS'0'
aS'0'
aS'1'
aS'0'
aS'0'
aS'1'
aS'0'
aS'1'
aS'0'
aS'1'
aS'1'
aS'0'
aS'1'
aS'0'
aS'1'
aS'1'
aS'0'
aS'1'
aS'0'
aS'0'
aS'1'
aS'1'
aS'1'
aS'0'
aS'1'
aS'1'
aS'0'
aS'1'
aS'1'
aS'1'
aS'0'
aS'1'
aS'1'
aS'0'
aS'1'
aS'1'
aS'1'
aS'1'
aS'1'
aS'0'
aS'1'
aS'0'
aS'1'
aS'1'
aS'1'
aS'1'
aS'1'
aS'1'
aS'1'
aS'0'
aS'0'
aS'1'
aS'1'
aS'1'
aS'1'
aS'0'
aS'0'
aS'0'
aS'1'
aS'1'
aS'1'
aS'1'
aS'0'
aS'1'
aS'0'
aS'1'
aS'1'
aS'1'
aS'1'
aS'1'
aS'1'
aS'0'
aS'1'
aS'1'
aS'0'
aS'0'
aS'1'
aS'0'
aS'0'
aS'0'
aS'1'
aS'1'
aS'0'
aS'1'
aS'0'
aS'1'
aS'1'
aS'0'
aS'0'
aS'1'
aS'0'
aS'1'
aS'0'
aS'1'
aS'1'
aS'0'
aS'1'
aS'1'
aS'0'
aS'1'
aS'0'
aS'1'
aS'1'
aS'0'
aS'1'
aS'1'
aS'1'
aS'1'
aS'1'
aS'1'
aS'1'
aS'1'
aS'1'
aS'1'
aS'1'
aS'0'
aS'1'
aS'1'
aS'1'
aS'0'
aS'1'
aS'0'
aS'1'
aS'0'
aS'1'
aS'1'
aS'1'
aS'1'
aS'1'
aS'1'
aS'1'
aS'0'
aS'1'
aS'0'
aS'0'
aS'1'
aS'1'
aS'0'
aS'0'
aS'0'
aS'1'
aS'1'
aS'0'
aS'1'
aS'0'
aS'1'
aS'1'
aS'0'
aS'0'
aS'0'
aS'1'
aS'0'
aS'0'
aS'1'
aS'1'
aS'1'
aS'0'
aS'0'
aS'1'
aS'1'
aS'1'
aS'1'
aS'0'
aS'0'
aS'0'
aS'1'
aS'0'
aS'1'
aS'1'
aS'1'
aS'0'
aS'1'
aS'0'
aS'1'
aS'1'
aS'1'
aS'1'
aS'1'
aS'1'
aS'1'
aS'0'
aS'0'
aS'1'
aS'0'
aS'0'
aS'1'
aS'0'
aS'0'
aS'1'
aS'0'
aS'1'
aS'0'
aS'1'
aS'1'
aS'1'
aS'0'
aS'0'
aS'1'
aS'1'
aS'0'
aS'1'
aS'0'
aS'1'
aS'0'
aS'0'
aS'0'
aS'0'
aS'1'
aS'0'
aS'0'
aS'1'
aS'1'
aS'1'
aS'0'
aS'0'
aS'0'
aS'1'
aS'1'
aS'1'
aS'1'
aS'0'
aS'1'
aS'1'
aS'0'
aS'0'
aS'0'
aS'0'
aS'0'
aS'1'
aS'1'
aS'1'
aS'1'
aS'1'
aS'1'
aS'0'
aS'1'
aS'0'
aS'0'
aS'1'
aS'1'
aS'0'
aS'0'
aS'0'
aS'1'
aS'0'
aS'0'
aS'1'
aS'1'
aS'1'
aS'1'
aS'1'
aS'1'
aS'1'
aS'1'
aS'1'
aS'1'
aS'1'
aS'1'
aS'1'
aS'1'
aS'1'
aS'1'
aS'1'
aS'0'
aS'1'
aS'1'
aS'0'
aS'1'
aS'1'
aS'0'
aS'0'
aS'0'
aS'1'
aS'0'
aS'1'
aS'0'
aS'0'
aS'0'
aS'1'
aS'0'
aS'1'
aS'1'
aS'1'
aS'1'
aS'0'
aS'1'
aS'1'
aS'1'
aS'0'
aS'1'
aS'0'
aS'1'
aS'0'
aS'0'
aS'1'
aS'0'
aS'1'
aS'1'
aS'0'
aS'1'
aS'1'
aS'0'
aS'0'
aS'0'
aS'1'
aS'1'
aS'0'
aS'1'
aS'1'
aS'1'
aS'1'
aS'1'
aS'1'
aS'1'
aS'1'
aS'1'
aS'1'
aS'1'
aS'0'
aS'0'
aS'1'
aS'1'
aS'1'
aS'0'
aS'1'
aS'0'
aS'1'
aS'0'
aS'1'
aS'1'
aS'0'
aS'1'
aS'1'
aS'1'
aS'0'
aS'0'
aS'0'
aS'1'
aS'0'
aS'0'
aS'1'
aS'0'
aS'1'
aS'0'
aS'0'
aS'1'
aS'1'
aS'0'
aS'0'
aS'1'
aS'1'
aS'1'
aS'1'
aS'0'
aS'0'
aS'0'
aS'1'
aS'0'
aS'1'
aS'1'
aS'1'
aS'0'
aS'0'
aS'0'
aS'0'
aS'0'
aS'1'
aS'1'
aS'1'
aS'1'
aS'1'
aS'1'
aS'1'
aS'1'
aS'0'
aS'0'
aS'1'
aS'1'
aS'1'
aS'0'
aS'0'
aS'0'
aS'1'
aS'1'
aS'1'
aS'0'
aS'1'
aS'1'
aS'0'
aS'0'
aS'0'
aS'1'
aS'1'
aS'0'
aS'1'
aS'1'
aS'0'
asS'TN_rate'
p2589
F0.16157205240174671
sS'FN'
p2590
F61
sS'accuracy'
p2591
F0.65541327124563442
st.