(dp1
S'd011.s024.t002'
p2
(dp3
S'gold_keys'
p4
(lp5
S'point%1:23:01::'
p6
asS'mw'
p7
I00
ssS'd001.s027.t006'
p8
(dp9
g4
(lp10
S'copenhagen%1:15:00::'
p11
asg7
I00
ssS'd001.s027.t003'
p12
(dp13
g4
(lp14
S'wednesday%1:28:00::'
p15
asg7
I00
ssS'd001.s027.t002'
p16
(dp17
g4
(lp18
S'minister%1:18:02::'
p19
asg7
I00
ssS'd001.s027.t001'
p20
(dp21
g4
(lp22
S'intensity%1:07:00::'
p23
asg7
I00
ssS'd002.s006.t004'
p24
(dp25
g4
(lp26
S'net%1:06:04::'
p27
asg7
I00
ssS'd005.s001.t003'
p28
(dp29
g4
(lp30
S'support%1:21:01::'
p31
asg7
I00
ssS'd005.s001.t002'
p32
(dp33
g4
(lp34
S'state%1:14:01::'
p35
asg7
I00
ssS'd005.s001.t001'
p36
(dp37
g4
(lp38
S'bank%1:14:00::'
p39
asg7
I00
ssS'd003.s010.t006'
p40
(dp41
g4
(lp42
S'pressure%1:07:00::'
p43
asg7
I00
ssS'd003.s010.t005'
p44
(dp45
g4
(lp46
S'euro%1:23:00::'
p47
asg7
I00
ssS'd003.s004.t004'
p48
(dp49
g4
(lp50
S'point%1:26:00::'
p51
asg7
I00
ssS'd003.s003.t007'
p52
(dp53
g4
(lp54
S'technology%1:09:00::'
p55
asg7
I00
ssS'd003.s010.t002'
p56
(dp57
g4
(lp58
S'rise%1:11:00::'
p59
asg7
I00
ssS'd009.s025.t007'
p60
(dp61
g4
(lp62
S'region%1:15:00::'
p63
asg7
I00
ssS'd009.s025.t006'
p64
(dp65
g4
(lp66
S'respondent%1:18:00::'
p67
asg7
I00
ssS'd009.s025.t001'
p68
(dp69
g4
(lp70
S'performance%1:22:00::'
p71
asg7
I00
ssS'd003.s010.t001'
p72
(dp73
g4
(lp74
S'index%1:10:01::'
p75
asg7
I00
ssS'd009.s025.t002'
p76
(dp77
g4
(lp78
S'support%1:04:00::'
p79
asg7
I00
ssS'd002.s003.t006'
p80
(dp81
g4
(lp82
S'victory%1:11:00::'
p83
asg7
I00
ssS'd011.s004.t006'
p84
(dp85
g4
(lp86
S'today%1:28:01::'
p87
asg7
I00
ssS'd002.s003.t004'
p88
(dp89
g4
(lp90
S'teamwork%1:04:00::'
p91
asg7
I00
ssS'd002.s003.t005'
p92
(dp93
g4
(lp94
S'end%1:11:00::'
p95
asg7
I00
ssS'd002.s003.t002'
p96
(dp97
g4
(lp98
S'absence%1:26:00::'
p99
asg7
I00
ssS'd002.s003.t003'
p100
(dp101
g4
(lp102
S'involvement%1:04:00::'
p103
asg7
I00
ssS'd011.s004.t001'
p104
(dp105
g4
(lp106
S'contrast%1:09:01::'
p107
asg7
I00
ssS'd002.s003.t001'
p108
(dp109
g4
(lp110
S'team%1:14:00::'
p111
asg7
I00
ssS'd005.s012.t002'
p112
(dp113
g4
(lp114
S'spokesman%1:18:00::'
p115
asg7
I00
ssS'd001.s011.t011'
p116
(dp117
g4
(lp118
S'drought%1:26:00::'
p119
asg7
I00
ssS'd001.s011.t010'
p120
(dp121
g4
(lp122
S'flood%1:19:00::'
p123
asg7
I00
ssS'd001.s011.t012'
p124
(dp125
g4
(lp126
S'deforestation%1:26:00::'
p127
aS'deforestation%1:04:00::'
p128
asg7
I00
ssS'd002.s013.t009'
p129
(dp130
g4
(lp131
S'end%1:28:00::'
p132
asg7
I00
ssS'd002.s013.t008'
p133
(dp134
g4
(lp135
S'team%1:14:00::'
p136
asg7
I00
ssS'd002.s013.t007'
p137
(dp138
g4
(lp139
S'lead%1:07:02::'
p140
asg7
I00
ssS'd002.s013.t006'
p141
(dp142
g4
(lp143
S'scoreboard%1:06:00::'
p144
asg7
I00
ssS'd002.s013.t005'
p145
(dp146
g4
(lp147
S'help%1:04:00::'
p148
asg7
I00
ssS'd002.s013.t003'
p149
(dp150
g4
(lp151
S'play%1:04:05::'
p152
asg7
I00
ssS'd002.s013.t002'
p153
(dp154
g4
(lp155
S'couple%1:23:01::'
p156
asg7
I00
ssS'd002.s013.t001'
p157
(dp158
g4
(lp159
S'player%1:18:01::'
p160
asg7
I00
ssS'd006.s009.t004'
p161
(dp162
g4
(lp163
S'courtroom%1:06:00::'
p164
asg7
I00
ssS'd006.s009.t005'
p165
(dp166
g4
(lp167
S'individual%1:03:00::'
p168
asg7
I00
ssS'd006.s009.t006'
p169
(dp170
g4
(lp171
S'right%1:07:00::'
p172
asg7
I00
ssS'd006.s018.t005'
p173
(dp174
g4
(lp175
S'execution%1:04:00::'
p176
asg7
I00
ssS'd006.s018.t002'
p177
(dp178
g4
(lp179
S'issue%1:09:01::'
p180
asg7
I00
ssS'd006.s009.t001'
p181
(dp182
g4
(lp183
S'trial%1:04:02::'
p184
asg7
I00
ssS'd006.s009.t002'
p185
(dp186
g4
(lp187
S'danger%1:26:00::'
p188
asg7
I00
ssS'd006.s009.t003'
p189
(dp190
g4
(lp191
S'inclusion%1:04:00::'
p192
asg7
I00
ssS'd002.s004.t005'
p193
(dp194
g4
(lp195
S'triumph%1:11:00::'
p196
asg7
I00
ssS'd002.s004.t004'
p197
(dp198
g4
(lp199
S'lot%1:23:00::'
p200
asg7
I00
ssS'd002.s004.t002'
p201
(dp202
g4
(lp203
S'sideline%1:15:00::'
p204
asg7
I00
ssS'd002.s004.t001'
p205
(dp206
g4
(lp207
S'success%1:26:00::'
p208
asg7
I00
ssS'd012.s002.t010'
p209
(dp210
g4
(lp211
S'compatibility%1:07:00::'
p212
asg7
I00
ssS'd009.s016.t001'
p213
(dp214
g4
(lp215
S'decade%1:28:00::'
p216
asg7
I00
ssS'd009.s026.t004'
p217
(dp218
g4
(lp219
S'country%1:14:00::'
p220
asg7
I00
ssS'd009.s026.t006'
p221
(dp222
g4
(lp223
S'year%1:28:01::'
p224
asg7
I00
ssS'd009.s026.t003'
p225
(dp226
g4
(lp227
S'system%1:09:00::'
p228
asg7
I00
ssS'd011.s005.t007'
p229
(dp230
g4
(lp231
S'record%1:04:01::'
p232
asg7
I00
ssS'd011.s005.t001'
p233
(dp234
g4
(lp235
S'europe%1:17:00::'
p236
asg7
I00
ssS'd006.s024.t001'
p237
(dp238
g4
(lp239
S'challenge%1:10:01::'
p240
asg7
I00
ssS'd006.s024.t003'
p241
(dp242
g4
(lp243
S'month%1:28:01::'
p244
asg7
I00
ssS'd006.s024.t002'
p245
(dp246
g4
(lp247
S'verdict%1:04:00::'
p248
asg7
I00
ssS'd006.s024.t005'
p249
(dp250
g4
(lp251
S'news%1:10:01::'
p252
asg7
I00
ssS'd006.s024.t004'
p253
(dp254
g4
(lp255
S'case%1:04:00::'
p256
asg7
I00
ssS'd006.s024.t007'
p257
(dp258
g4
(lp259
S'election%1:04:01::'
p260
asg7
I00
ssS'd006.s024.t006'
p261
(dp262
g4
(lp263
S'connecticut%1:15:00::'
p264
asg7
I00
ssS'd006.s024.t009'
p265
(dp266
g4
(lp267
S'candidate%1:18:01::'
p268
asg7
I00
ssS'd006.s024.t008'
p269
(dp270
g4
(lp271
S'campaign%1:11:00::'
p272
asg7
I00
ssS'd007.s027.t004'
p273
(dp274
g4
(lp275
S'action%1:04:02::'
p276
asg7
I00
ssS'd007.s027.t001'
p277
(dp278
g4
(lp279
S'damage%1:11:00::'
p280
asg7
I00
ssS'd007.s027.t003'
p281
(dp282
g4
(lp283
S'sport%1:04:00::'
p284
asg7
I00
ssS'd007.s027.t002'
p285
(dp286
g4
(lp287
S'principle%1:10:00::'
p288
asg7
I00
ssS'd009.s007.t001'
p289
(dp290
g4
(lp291
S'thing%1:26:00::'
p292
asg7
I00
ssS'd009.s007.t003'
p293
(dp294
g4
(lp295
S'year%1:28:01::'
p296
asg7
I00
ssS'd009.s007.t002'
p297
(dp298
g4
(lp299
S'result%1:19:00::'
p300
asg7
I00
ssS'd009.s007.t004'
p301
(dp302
g4
(lp303
S'poll%1:09:00::'
p304
asg7
I00
ssS'd009.s007.t006'
p305
(dp306
g4
(lp307
S'october%1:28:00::'
p308
asg7
I00
ssS'd007.s020.t017'
p309
(dp310
g4
(lp311
S'place%1:04:01::'
p312
asg7
I00
ssS'd007.s020.t016'
p313
(dp314
g4
(lp315
S'accumulation%1:04:00::'
p316
asg7
I00
ssS'd007.s020.t015'
p317
(dp318
g4
(lp319
S'card%1:27:00::'
p320
asg7
I00
ssS'd006.s011.t002'
p321
(dp322
g4
(lp323
S'issue%1:09:01::'
p324
asg7
I00
ssS'd007.s020.t013'
p325
(dp326
g4
(lp327
S'card%1:27:00::'
p328
asg7
I00
ssS'd007.s020.t012'
p329
(dp330
g4
(lp331
S'cycle%1:11:01::'
p332
asg7
I00
ssS'd007.s020.t011'
p333
(dp334
g4
(lp335
S'game%1:04:03::'
p336
asg7
I00
ssS'd007.s020.t010'
p337
(dp338
g4
(lp339
S'sanction%1:04:02::'
p340
asg7
I00
ssS'd007.s020.t018'
p341
(dp342
g4
(lp343
S'cycle%1:11:01::'
p344
asg7
I00
ssS'd012.s006.t006'
p345
(dp346
g4
(lp347
S'country%1:14:00::'
p348
asg7
I00
ssS'd012.s006.t007'
p349
(dp350
g4
(lp351
S'worker%1:18:00::'
p352
asg7
I00
ssS'd012.s006.t004'
p353
(dp354
g4
(lp355
S'unemployed%1:14:00::'
p356
asg7
I00
ssS'd012.s006.t005'
p357
(dp358
g4
(lp359
S'problem%1:26:00::'
p360
asg7
I00
ssS'd012.s006.t002'
p361
(dp362
g4
(lp363
S'tone%1:26:01::'
p364
asg7
I00
ssS'd013.s011.t003'
p365
(dp366
g4
(lp367
S'us%1:15:00::'
p368
asg7
I00
ssS'd012.s006.t001'
p369
(dp370
g4
(lp371
S'right%1:14:00::'
p372
asg7
I00
ssS'd007.s007.t003'
p373
(dp374
g4
(lp375
S'circumstance%1:26:02::'
p376
asg7
I00
ssS'd007.s007.t002'
p377
(dp378
g4
(lp379
S'card%1:27:00::'
p380
asg7
I00
ssS'd007.s007.t001'
p381
(dp382
g4
(lp383
S'provocation%1:16:00::'
p384
asg7
I00
ssS'd013.s008.t002'
p385
(dp386
g4
(lp387
S'culpability%1:26:00::'
p388
asg7
I00
ssS'd004.s003.t011'
p389
(dp390
g4
(lp391
S'decade%1:28:00::'
p392
asg7
I00
ssS'd007.s007.t006'
p393
(dp394
g4
(lp395
S'football%1:04:00::'
p396
asg7
I00
ssS'd007.s007.t005'
p397
(dp398
g4
(lp399
S'world%1:17:02::'
p400
asg7
I00
ssS'd007.s007.t004'
p401
(dp402
g4
(lp403
S'practice%1:04:00::'
p404
asg7
I00
ssS'd001.s023.t010'
p405
(dp406
g4
(lp407
S'action%1:04:04::'
p408
asg7
I00
ssS'd001.s023.t012'
p409
(dp410
g4
(lp411
S'china%1:15:00::'
p412
asg7
I00
ssS'd001.s023.t013'
p413
(dp414
g4
(lp415
S'india%1:15:00::'
p416
asg7
I00
ssS'd009.s014.t009'
p417
(dp418
g4
(lp419
S'increase%1:07:00::'
p420
asg7
I00
ssS'd009.s014.t008'
p421
(dp422
g4
(lp423
S'year%1:28:01::'
p424
asg7
I00
ssS'd009.s017.t001'
p425
(dp426
g4
(lp427
S'world%1:17:00::'
p428
asg7
I00
ssS'd009.s014.t003'
p429
(dp430
g4
(lp431
S'region%1:15:00::'
p432
asg7
I00
ssS'd009.s014.t002'
p433
(dp434
g4
(lp435
S'respondent%1:18:00::'
p436
asg7
I00
ssS'd009.s014.t005'
p437
(dp438
g4
(lp439
S'democracy%1:14:00::'
p440
asg7
I00
ssS'd009.s014.t004'
p441
(dp442
g4
(lp443
S'country%1:14:00::'
p444
asg7
I00
ssS'd009.s014.t007'
p445
(dp446
g4
(lp447
S'figure%1:07:01::'
p448
asg7
I00
ssS'd009.s014.t006'
p449
(dp450
g4
(lp451
S'practice%1:04:00::'
p452
asg7
I00
ssS'd006.s002.t003'
p453
(dp454
g4
(lp455
S'row%1:14:00::'
p456
asg7
I00
ssS'd006.s002.t002'
p457
(dp458
g4
(lp459
S'courtroom%1:06:00::'
p460
asg7
I00
ssS'd012.s015.t006'
p461
(dp462
g4
(lp463
S'one%1:09:00::'
p464
asg7
I00
ssS'd012.s015.t007'
p465
(dp466
g4
(lp467
S'pressure%1:07:00::'
p468
asg7
I00
ssS'd012.s015.t004'
p469
(dp470
g4
(lp471
S'notion%1:09:02::'
p472
asg7
I00
ssS'd012.s015.t005'
p473
(dp474
g4
(lp475
S'worker%1:18:00::'
p476
asg7
I00
ssS'd012.s015.t002'
p477
(dp478
g4
(lp479
S'impact%1:19:00::'
p480
asg7
I00
ssS'd012.s015.t003'
p481
(dp482
g4
(lp483
S'immigrant%1:18:00::'
p484
asg7
I00
ssS'd012.s015.t001'
p485
(dp486
g4
(lp487
S'fear%1:12:00::'
p488
asg7
I00
ssS'd007.s010.t003'
p489
(dp490
g4
(lp491
S'behavior%1:04:00::'
p492
asg7
I00
ssS'd007.s010.t002'
p493
(dp494
g4
(lp495
S'type%1:09:00::'
p496
asg7
I00
ssS'd007.s010.t001'
p497
(dp498
g4
(lp499
S'debate%1:10:01::'
p500
asg7
I00
ssS'd007.s010.t007'
p501
(dp502
g4
(lp503
S'action%1:04:02::'
p504
asg7
I00
ssS'd007.s010.t006'
p505
(dp506
g4
(lp507
S'sport%1:04:00::'
p508
asg7
I00
ssS'd007.s010.t005'
p509
(dp510
g4
(lp511
S'principle%1:10:00::'
p512
asg7
I00
ssS'd009.s022.t001'
p513
(dp514
g4
(lp515
S'mexico%1:15:00::'
p516
asg7
I00
ssS'd009.s022.t003'
p517
(dp518
g4
(lp519
S'recession%1:26:00::'
p520
asg7
I00
ssS'd009.s022.t004'
p521
(dp522
g4
(lp523
S'crime%1:04:00::'
p524
asg7
I00
ssS'd010.s021.t005'
p525
(dp526
g4
(lp527
S'group%1:03:00::'
p528
asg7
I00
ssS'd002.s015.t001'
p529
(dp530
g4
(lp531
S'team%1:14:00::'
p532
asg7
I00
ssS'd010.s021.t004'
p533
(dp534
g4
(lp535
S'court%1:14:00::'
p536
asg7
I00
ssS'd007.s003.t010'
p537
(dp538
g4
(lp539
S'behavior%1:04:00::'
p540
asg7
I00
ssS'd007.s003.t011'
p541
(dp542
g4
(lp543
S'player%1:18:01::'
p544
asg7
I00
ssS'd013.s011.t007'
p545
(dp546
g4
(lp547
S'deposit%1:21:01::'
p548
asg7
I00
ssS'd013.s011.t006'
p549
(dp550
g4
(lp551
S'customer%1:18:00::'
p552
asg7
I00
ssS'd009.s008.t002'
p553
(dp554
g4
(lp555
S'mood%1:26:00::'
p556
asg7
I00
ssS'd012.s013.t008'
p557
(dp558
g4
(lp559
S'world%1:14:01::'
p560
asg7
I00
ssS'd012.s013.t009'
p561
(dp562
g4
(lp563
S'future%1:28:00::'
p564
asg7
I00
ssS'd007.s014.t010'
p565
(dp566
g4
(lp567
S'punishment%1:04:00::'
p568
asg7
I00
ssS'd007.s014.t011'
p569
(dp570
g4
(lp571
S'referee%1:18:00::'
p572
asg7
I00
ssS'd012.s013.t006'
p573
(dp574
g4
(lp575
S'people%1:14:00::'
p576
asg7
I00
ssS'd012.s013.t007'
p577
(dp578
g4
(lp579
S'migration%1:04:00::'
p580
asg7
I00
ssS'd012.s013.t001'
p581
(dp582
g4
(lp583
S'economist%1:18:00::'
p584
asg7
I00
ssS'd012.s013.t003'
p585
(dp586
g4
(lp587
S'book%1:10:00::'
p588
asg7
I00
ssS'd001.s006.t007'
p589
(dp590
g4
(lp591
S'temperature%1:07:00::'
p592
asg7
I00
ssS'd001.s006.t002'
p593
(dp594
g4
(lp595
S'option%1:09:00::'
p596
asg7
I00
ssS'd001.s006.t003'
p597
(dp598
g4
(lp599
S'question%1:10:01::'
p600
asg7
I00
ssS'd001.s006.t001'
p601
(dp602
g4
(lp603
S'range%1:07:00::'
p604
asg7
I00
ssS'd001.s006.t008'
p605
(dp606
g4
(lp607
S'rise%1:11:00::'
p608
asg7
I00
ssS'd007.s004.t006'
p609
(dp610
g4
(lp611
S'time%1:28:05::'
p612
asg7
I00
ssS'd007.s004.t007'
p613
(dp614
g4
(lp615
S'referee%1:18:00::'
p616
asg7
I00
ssS'd007.s004.t004'
p617
(dp618
g4
(lp619
S'team%1:14:00::'
p620
asg7
I00
ssS'd007.s004.t005'
p621
(dp622
g4
(lp623
S'player%1:18:01::'
p624
asg7
I00
ssS'd007.s004.t002'
p625
(dp626
g4
(lp627
S'end%1:11:00::'
p628
asg7
I00
ssS'd007.s004.t003'
p629
(dp630
g4
(lp631
S'game%1:04:03::'
p632
asg7
I00
ssS'd007.s004.t001'
p633
(dp634
g4
(lp635
S'minute%1:28:00::'
p636
asg7
I00
ssS'd013.s006.t003'
p637
(dp638
g4
(lp639
S'crisis%1:26:00::'
p640
asg7
I00
ssS'd011.s004.t005'
p641
(dp642
g4
(lp643
S'game%1:04:03::'
p644
asg7
I00
ssS'd007.s004.t008'
p645
(dp646
g4
(lp647
S'card%1:27:00::'
p648
asg7
I00
ssS'd013.s006.t002'
p649
(dp650
g4
(lp651
S'security%1:21:04::'
p652
asg7
I00
ssS'd013.s012.t004'
p653
(dp654
g4
(lp655
S'billion%1:23:01::'
p656
asg7
I00
ssS'd011.s004.t004'
p657
(dp658
g4
(lp659
S'country%1:14:00::'
p660
asg7
I00
ssS'd013.s012.t002'
p661
(dp662
g4
(lp663
S'compensation%1:21:00::'
p664
asg7
I00
ssS'd013.s006.t001'
p665
(dp666
g4
(lp667
S'value%1:21:00::'
p668
asg7
I00
ssS'd009.s025.t009'
p669
(dp670
g4
(lp671
S'development%1:04:01::'
p672
asg7
I00
ssS'd006.s001.t001'
p673
(dp674
g4
(lp675
S'appeal%1:04:00::'
p676
asg7
I00
ssS'd012.s010.t004'
p677
(dp678
g4
(lp679
S'immigrant%1:18:00::'
p680
asg7
I00
ssS'd012.s010.t001'
p681
(dp682
g4
(lp683
S'difference%1:07:00::'
p684
asg7
I00
ssS'd012.s010.t003'
p685
(dp686
g4
(lp687
S'generosity%1:07:00::'
p688
asg7
I00
ssS'd012.s010.t002'
p689
(dp690
g4
(lp691
S'degree%1:07:00::'
p692
asg7
I00
ssS'd007.s013.t006'
p693
(dp694
g4
(lp695
S'advantage%1:07:01::'
p696
asg7
I00
ssS'd007.s013.t007'
p697
(dp698
g4
(lp699
S'team%1:14:00::'
p700
asg7
I00
ssS'd007.s013.t004'
p701
(dp702
g4
(lp703
S'player%1:18:01::'
p704
asg7
I00
ssS'd007.s013.t002'
p705
(dp706
g4
(lp707
S'team%1:14:00::'
p708
asg7
I00
ssS'd007.s013.t003'
p709
(dp710
g4
(lp711
S'lawbreaker%1:18:00::'
p712
asg7
I00
ssS'd007.s013.t001'
p713
(dp714
g4
(lp715
S'advantage%1:07:01::'
p716
asg7
I00
ssS'd013.s001.t004'
p717
(dp718
g4
(lp719
S'fine%1:21:00::'
p720
asg7
I00
ssS'd013.s001.t005'
p721
(dp722
g4
(lp723
S'usa%1:15:00::'
p724
asg7
I00
ssS'd013.s001.t003'
p725
(dp726
g4
(lp727
S'pound%1:23:01::'
p728
asg7
I00
ssS'd012.s025.t001'
p729
(dp730
g4
(lp731
S'question%1:10:01::'
p732
asg7
I00
ssS'd012.s025.t003'
p733
(dp734
g4
(lp735
S'effect%1:19:00::'
p736
asg7
I00
ssS'd012.s025.t002'
p737
(dp738
g4
(lp739
S'immigrant%1:18:00::'
p740
asg7
I00
ssS'd013.s014.t006'
p741
(dp742
g4
(lp743
S'summer%1:28:00::'
p744
asg7
I00
ssS'd011.s022.t001'
p745
(dp746
g4
(lp747
S'game%1:04:03::'
p748
asg7
I00
ssS'd013.s014.t002'
p749
(dp750
g4
(lp751
S'bank%1:14:00::'
p752
asg7
I00
ssS'd011.s013.t003'
p753
(dp754
g4
(lp755
S'player%1:18:01::'
p756
asg7
I00
ssS'd001.s003.t005'
p757
(dp758
g4
(lp759
S'obstacle%1:09:00::'
p760
asg7
I00
ssS'd001.s003.t006'
p761
(dp762
g4
(lp763
S'path%1:04:00::'
p764
asg7
I00
ssS'd001.s003.t001'
p765
(dp766
g4
(lp767
S'text%1:10:01::'
p768
aS'text%1:10:00::'
p769
asg7
I00
ssS'd001.s003.t003'
p770
(dp771
g4
(lp772
S'deal%1:10:00::'
p773
asg7
I00
ssS'd001.s003.t002'
p774
(dp775
g4
(lp776
S'basis%1:09:00::'
p777
asg7
I00
ssS'd012.s018.t001'
p778
(dp779
g4
(lp780
S'effect%1:19:00::'
p781
asg7
I00
ssS'd012.s018.t002'
p782
(dp783
g4
(lp784
S'wage%1:21:00::'
p785
asg7
I00
ssS'd013.s007.t005'
p786
(dp787
g4
(lp788
S'spokesman%1:18:00::'
p789
asg7
I00
ssS'd013.s007.t001'
p790
(dp791
g4
(lp792
S'issue%1:09:01::'
p793
asg7
I00
ssS'd013.s007.t002'
p794
(dp795
g4
(lp796
S'party%1:18:00::'
p797
asg7
I00
ssS'd013.s007.t003'
p798
(dp799
g4
(lp800
S'court%1:14:00::'
p801
asg7
I00
ssS'd010.s008.t005'
p802
(dp803
g4
(lp804
S'law%1:10:00::'
p805
asg7
I00
ssS'd010.s008.t002'
p806
(dp807
g4
(lp808
S'dinner%1:14:00::'
p809
asg7
I00
ssS'd010.s008.t001'
p810
(dp811
g4
(lp812
S'firm%1:14:00::'
p813
asg7
I00
ssS'd004.s016.t007'
p814
(dp815
g4
(lp816
S'field%1:15:00::'
p817
asg7
I00
ssS'd004.s003.t009'
p818
(dp819
g4
(lp820
S'iraq%1:15:00::'
p821
asg7
I00
ssS'd001.s010.t001'
p822
(dp823
g4
(lp824
S'country%1:14:00::'
p825
asg7
I00
ssS'd001.s010.t003'
p826
(dp827
g4
(lp828
S'percent%1:24:00::'
p829
asg7
I00
ssS'd001.s010.t002'
p830
(dp831
g4
(lp832
S'emission%1:27:00::'
p833
asg7
I00
ssS'd003.s003.t001'
p834
(dp835
g4
(lp836
S'closing%1:04:02::'
p837
asg7
I00
ssS'd009.s028.t006'
p838
(dp839
g4
(lp840
S'respondent%1:18:00::'
p841
asg7
I00
ssS'd009.s028.t004'
p842
(dp843
g4
(lp844
S'region%1:15:00::'
p845
asg7
I00
ssS'd009.s028.t002'
p846
(dp847
g4
(lp848
S'country%1:14:00::'
p849
asg7
I00
ssS'd009.s028.t003'
p850
(dp851
g4
(lp852
S'leadership%1:09:00::'
p853
asg7
I00
ssS'd009.s028.t001'
p854
(dp855
g4
(lp856
S'brazil%1:15:00::'
p857
asg7
I00
ssS'd013.s004.t001'
p858
(dp859
g4
(lp860
S'issue%1:09:01::'
p861
asg7
I00
ssS'd009.s028.t008'
p862
(dp863
g4
(lp864
S'year%1:28:01::'
p865
asg7
I00
ssS'd013.s004.t002'
p866
(dp867
g4
(lp868
S'sale%1:04:00::'
p869
asg7
I00
ssS'd012.s006.t011'
p870
(dp871
g4
(lp872
S'world%1:17:00::'
p873
asg7
I00
ssS'd012.s006.t010'
p874
(dp875
g4
(lp876
S'france%1:15:00::'
p877
asg7
I00
ssS'd012.s006.t012'
p878
(dp879
g4
(lp880
S'misery%1:26:00::'
p881
asg7
I00
ssS'd001.s023.t008'
p882
(dp883
g4
(lp884
S'process%1:04:00::'
p885
asg7
I00
ssS'd001.s023.t003'
p886
(dp887
g4
(lp888
S'behalf%1:04:00::'
p889
asg7
I00
ssS'd001.s023.t002'
p890
(dp891
g4
(lp892
S'negotiation%1:10:00::'
p893
asg7
I00
ssS'd001.s023.t001'
p894
(dp895
g4
(lp896
S'climate%1:26:00::'
p897
asg7
I00
ssS'd001.s023.t007'
p898
(dp899
g4
(lp900
S'pressure%1:07:00::'
p901
asg7
I00
ssS'd001.s023.t005'
p902
(dp903
g4
(lp904
S'push%1:04:01::'
p905
asg7
I00
ssS'd012.s008.t004'
p906
(dp907
g4
(lp908
S'horde%1:14:00::'
p909
asg7
I00
ssS'd012.s008.t005'
p910
(dp911
g4
(lp912
S'plumber%1:18:00::'
p913
asg7
I00
ssS'd012.s008.t006'
p914
(dp915
g4
(lp916
S'left%1:14:00::'
p917
asg7
I00
ssS'd012.s008.t007'
p918
(dp919
g4
(lp920
S'right%1:14:00::'
p921
asg7
I00
ssS'd010.s002.t004'
p922
(dp923
g4
(lp924
S'question%1:10:01::'
p925
asg7
I00
ssS'd010.s002.t005'
p926
(dp927
g4
(lp928
S'challenge%1:10:01::'
p929
asg7
I00
ssS'd012.s008.t002'
p930
(dp931
g4
(lp932
S'invasion%1:11:00::'
p933
asg7
I00
ssS'd012.s008.t003'
p934
(dp935
g4
(lp936
S'territory%1:15:01::'
p937
asg7
I00
ssS'd010.s002.t008'
p938
(dp939
g4
(lp940
S'law%1:10:00::'
p941
asg7
I00
ssS'd010.s002.t009'
p942
(dp943
g4
(lp944
S'justice%1:18:00::'
p945
asg7
I00
ssS'd004.s019.t009'
p946
(dp947
g4
(lp948
S'field%1:15:00::'
p949
asg7
I00
ssS'd004.s019.t008'
p950
(dp951
g4
(lp952
S'level%1:07:00::'
p953
asg7
I00
ssS'd004.s019.t007'
p954
(dp955
g4
(lp956
S'output%1:04:00::'
p957
asg7
I00
ssS'd004.s019.t006'
p958
(dp959
g4
(lp960
S'ministry%1:14:00::'
p961
asg7
I00
ssS'd004.s019.t005'
p962
(dp963
g4
(lp964
S'fee%1:21:00::'
p965
asg7
I00
ssS'd004.s019.t004'
p966
(dp967
g4
(lp968
S'barrel%1:23:01::'
p969
asg7
I00
ssS'd004.s019.t003'
p970
(dp971
g4
(lp972
S'offer%1:10:00::'
p973
asg7
I00
ssS'd004.s019.t002'
p974
(dp975
g4
(lp976
S'bid%1:10:00::'
p977
asg7
I00
ssS'd004.s019.t001'
p978
(dp979
g4
(lp980
S'company%1:14:01::'
p981
asg7
I00
ssS'd006.s005.t009'
p982
(dp983
g4
(lp984
S'jury%1:14:00::'
p985
asg7
I00
ssS'd003.s008.t006'
p986
(dp987
g4
(lp988
S'row%1:07:00::'
p989
asg7
I00
ssS'd006.s005.t001'
p990
(dp991
g4
(lp992
S'thursday%1:28:00::'
p993
asg7
I00
ssS'd006.s005.t002'
p994
(dp995
g4
(lp996
S'trial%1:04:02::'
p997
asg7
I00
ssS'd006.s005.t003'
p998
(dp999
g4
(lp1000
S'member%1:18:00::'
p1001
asg7
I00
ssS'd006.s005.t004'
p1002
(dp1003
g4
(lp1004
S'family%1:14:02::'
p1005
asg7
I00
ssS'd006.s005.t005'
p1006
(dp1007
g4
(lp1008
S'end%1:28:00::'
p1009
asg7
I00
ssS'd006.s005.t006'
p1010
(dp1011
g4
(lp1012
S'judge%1:18:00::'
p1013
asg7
I00
ssS'd006.s005.t007'
p1014
(dp1015
g4
(lp1016
S'imposition%1:04:02::'
p1017
asg7
I00
ssS'd013.s024.t005'
p1018
(dp1019
g4
(lp1020
S'sum%1:21:00::'
p1021
asg7
I00
ssS'd013.s024.t004'
p1022
(dp1023
g4
(lp1024
S'loss%1:21:01::'
p1025
asg7
I00
ssS'd013.s024.t003'
p1026
(dp1027
g4
(lp1028
S'responsibility%1:04:00::'
p1029
asg7
I00
ssS'd013.s024.t002'
p1030
(dp1031
g4
(lp1032
S'bank%1:14:00::'
p1033
asg7
I00
ssS'd013.s024.t001'
p1034
(dp1035
g4
(lp1036
S'regulator%1:18:00::'
p1037
asg7
I00
ssS'd007.s003.t006'
p1038
(dp1039
g4
(lp1040
S'game%1:04:03::'
p1041
asg7
I00
ssS'd007.s003.t002'
p1042
(dp1043
g4
(lp1044
S'player%1:18:01::'
p1045
asg7
I00
ssS'd007.s003.t001'
p1046
(dp1047
g4
(lp1048
S'expulsion%1:04:01::'
p1049
asg7
I00
ssS'd007.s003.t009'
p1050
(dp1051
g4
(lp1052
S'ink%1:27:01::'
p1053
asg7
I00
ssS'd009.s018.t001'
p1054
(dp1055
g4
(lp1056
S'addition%1:23:00::'
p1057
asg7
I00
ssS'd007.s014.t007'
p1058
(dp1059
g4
(lp1060
S'rule%1:10:00::'
p1061
asg7
I00
ssS'd007.s014.t006'
p1062
(dp1063
g4
(lp1064
S'violation%1:04:00::'
p1065
asg7
I00
ssS'd012.s013.t019'
p1066
(dp1067
g4
(lp1068
S'country%1:14:00::'
p1069
asg7
I00
ssS'd012.s013.t018'
p1070
(dp1071
g4
(lp1072
S'employment%1:26:00::'
p1073
asg7
I00
ssS'd007.s014.t003'
p1074
(dp1075
g4
(lp1076
S'player%1:18:01::'
p1077
asg7
I00
ssS'd007.s014.t002'
p1078
(dp1079
g4
(lp1080
S'action%1:04:02::'
p1081
asg7
I00
ssS'd007.s014.t001'
p1082
(dp1083
g4
(lp1084
S'thing%1:07:00::'
p1085
asg7
I00
ssS'd012.s013.t013'
p1086
(dp1087
g4
(lp1088
S'impact%1:19:00::'
p1089
asg7
I00
ssS'd012.s013.t012'
p1090
(dp1091
g4
(lp1092
S'specialist%1:18:00::'
p1093
asg7
I00
ssS'd012.s013.t011'
p1094
(dp1095
g4
(lp1096
S'consensus%1:26:00::'
p1097
asg7
I00
ssS'd012.s013.t017'
p1098
(dp1099
g4
(lp1100
S'wage%1:21:00::'
p1101
asg7
I00
ssS'd012.s013.t015'
p1102
(dp1103
g4
(lp1104
S'flow%1:26:00::'
p1105
asg7
I00
ssS'd012.s013.t014'
p1106
(dp1107
g4
(lp1108
S'migration%1:04:00::'
p1109
asg7
I00
ssS'd008.s021.t001'
p1110
(dp1111
g4
(lp1112
S'result%1:19:00::'
p1113
asg7
I00
ssS'd008.s021.t002'
p1114
(dp1115
g4
(lp1116
S'organism%1:03:00::'
p1117
asg7
I00
ssS'd008.s021.t004'
p1118
(dp1119
g4
(lp1120
S'element%1:27:00::'
p1121
asg7
I00
ssS'd001.s008.t005'
p1122
(dp1123
g4
(lp1124
S'climate%1:26:00::'
p1125
asg7
I00
ssS'd001.s008.t006'
p1126
(dp1127
g4
(lp1128
S'official%1:18:01::'
p1129
asg7
I00
ssS'd007.s009.t015'
p1130
(dp1131
g4
(lp1132
S'technician%1:18:01::'
p1133
asg7
I00
ssS'd004.s003.t008'
p1134
(dp1135
g4
(lp1136
S'role%1:04:00::'
p1137
asg7
I00
ssS'd007.s009.t013'
p1138
(dp1139
g4
(lp1140
S'dramatization%1:04:01::'
p1141
asg7
I00
ssS'd001.s008.t002'
p1142
(dp1143
g4
(lp1144
S'negotiation%1:10:00::'
p1145
asg7
I00
ssS'd001.s008.t003'
p1146
(dp1147
g4
(lp1148
S'text%1:10:01::'
p1149
aS'text%1:10:00::'
p1150
asg7
I00
ssS'd004.s003.t004'
p1151
(dp1152
g4
(lp1153
S'china%1:15:00::'
p1154
asg7
I00
ssS'd004.s003.t005'
p1155
(dp1156
g4
(lp1157
S'russia%1:15:04::'
p1158
asg7
I00
ssS'd004.s003.t006'
p1159
(dp1160
g4
(lp1161
S'oil%1:27:01::'
p1162
asg7
I00
ssS'd004.s003.t007'
p1163
(dp1164
g4
(lp1165
S'firm%1:14:00::'
p1166
asg7
I00
ssS'd001.s008.t008'
p1167
(dp1168
g4
(lp1169
S'picture%1:26:00::'
p1170
asg7
I00
ssS'd004.s003.t001'
p1171
(dp1172
g4
(lp1173
S'deal%1:10:00::'
p1174
asg7
I00
ssS'd004.s007.t001'
p1175
(dp1176
g4
(lp1177
S'company%1:14:01::'
p1178
asg7
I00
ssS'd004.s007.t002'
p1179
(dp1180
g4
(lp1181
S'deal%1:04:02::'
p1182
asg7
I00
ssS'd004.s007.t003'
p1183
(dp1184
g4
(lp1185
S'field%1:15:00::'
p1186
asg7
I00
ssS'd004.s007.t004'
p1187
(dp1188
g4
(lp1189
S'june%1:28:00::'
p1190
asg7
I00
ssS'd010.s013.t003'
p1191
(dp1192
g4
(lp1193
S'event%1:03:00::'
p1194
asg7
I00
ssS'd010.s013.t001'
p1195
(dp1196
g4
(lp1197
S'justice%1:18:00::'
p1198
asg7
I00
ssS'd010.s013.t004'
p1199
(dp1200
g4
(lp1201
S'year%1:28:01::'
p1202
asg7
I00
ssS'd008.s008.t001'
p1203
(dp1204
g4
(lp1205
S'researcher%1:18:00::'
p1206
asg7
I00
ssS'd008.s008.t002'
p1207
(dp1208
g4
(lp1209
S'bacterium%1:05:00::'
p1210
asg7
I00
ssS'd008.s008.t005'
p1211
(dp1212
g4
(lp1213
S'arsenic%1:27:00::'
p1214
asg7
I00
ssS'd008.s008.t004'
p1215
(dp1216
g4
(lp1217
S'calif.%1:15:00::'
p1218
asg7
I00
ssS'd008.s008.t006'
p1219
(dp1220
g4
(lp1221
S'phosphorus%1:27:00::'
p1222
asg7
I00
ssS'd005.s007.t005'
p1223
(dp1224
g4
(lp1225
S'business%1:14:00::'
p1226
asg7
I00
ssS'd005.s007.t004'
p1227
(dp1228
g4
(lp1229
S'sale%1:04:00::'
p1230
asg7
I00
ssS'd005.s007.t006'
p1231
(dp1232
g4
(lp1233
S'unit%1:24:00::'
p1234
asg7
I00
ssS'd005.s007.t001'
p1235
(dp1236
g4
(lp1237
S'rest%1:24:00::'
p1238
asg7
I00
ssS'd005.s007.t003'
p1239
(dp1240
g4
(lp1241
S'kitty%1:21:01::'
p1242
asg7
I00
ssS'd005.s007.t002'
p1243
(dp1244
g4
(lp1245
S'amount%1:21:00::'
p1246
asg7
I00
ssS'd004.s017.t001'
p1247
(dp1248
g4
(lp1249
S'china%1:15:00::'
p1250
asg7
I00
ssS'd004.s017.t003'
p1251
(dp1252
g4
(lp1253
S'power%1:14:00::'
p1254
asg7
I00
ssS'd004.s017.t002'
p1255
(dp1256
g4
(lp1257
S'track%1:17:00::'
p1258
asg7
I00
ssS'd004.s017.t004'
p1259
(dp1260
g4
(lp1261
S'spokesman%1:18:00::'
p1262
asg7
I00
ssS'd007.s023.t001'
p1263
(dp1264
g4
(lp1265
S'assumption%1:09:00::'
p1266
asg7
I00
ssS'd007.s023.t003'
p1267
(dp1268
g4
(lp1269
S'application%1:04:02::'
p1270
asg7
I00
ssS'd007.s023.t002'
p1271
(dp1272
g4
(lp1273
S'player%1:18:01::'
p1274
asg7
I00
ssS'd007.s023.t005'
p1275
(dp1276
g4
(lp1277
S'case%1:11:00::'
p1278
asg7
I00
ssS'd007.s023.t004'
p1279
(dp1280
g4
(lp1281
S'sanction%1:04:02::'
p1282
asg7
I00
ssS'd003.s013.t008'
p1283
(dp1284
g4
(lp1285
S'bond%1:21:02::'
p1286
asg7
I00
ssS'd003.s013.t009'
p1287
(dp1288
g4
(lp1289
S'yield%1:21:00::'
p1290
asg7
I00
ssS'd003.s013.t002'
p1291
(dp1292
g4
(lp1293
S'bond%1:21:02::'
p1294
asg7
I00
ssS'd003.s013.t003'
p1295
(dp1296
g4
(lp1297
S'yield%1:21:00::'
p1298
asg7
I00
ssS'd003.s013.t001'
p1299
(dp1300
g4
(lp1301
S'treasury%1:14:01::'
p1302
asg7
I00
ssS'd003.s013.t006'
p1303
(dp1304
g4
(lp1305
S'tuesday%1:28:00::'
p1306
asg7
I00
ssS'd003.s013.t007'
p1307
(dp1308
g4
(lp1309
S'evening%1:28:00::'
p1310
asg7
I00
ssS'd005.s003.t008'
p1311
(dp1312
g4
(lp1313
S'amount%1:21:00::'
p1314
asg7
I00
ssS'd005.s003.t001'
p1315
(dp1316
g4
(lp1317
S'wednesday%1:28:00::'
p1318
asg7
I00
ssS'd005.s003.t003'
p1319
(dp1320
g4
(lp1321
S'support%1:21:01::'
p1322
asg7
I00
ssS'd005.s003.t005'
p1323
(dp1324
g4
(lp1325
S'protection%1:21:00::'
p1326
asg7
I00
ssS'd005.s003.t004'
p1327
(dp1328
g4
(lp1329
S'bank%1:14:00::'
p1330
asg7
I00
ssS'd005.s003.t006'
p1331
(dp1332
g4
(lp1333
S'fund%1:21:00::'
p1334
asg7
I00
ssS'd009.s028.t015'
p1335
(dp1336
g4
(lp1337
S'year%1:28:01::'
p1338
asg7
I00
ssS'd009.s028.t011'
p1339
(dp1340
g4
(lp1341
S'year%1:28:01::'
p1342
asg7
I00
ssS'd009.s028.t012'
p1343
(dp1344
g4
(lp1345
S'venezuela%1:15:00::'
p1346
asg7
I00
ssS'd009.s001.t001'
p1347
(dp1348
g4
(lp1349
S'routine%1:04:00::'
p1350
asg7
I00
ssS'd006.s007.t008'
p1351
(dp1352
g4
(lp1353
S'detail%1:09:00::'
p1354
asg7
I00
ssS'd006.s007.t009'
p1355
(dp1356
g4
(lp1357
S'jury%1:14:00::'
p1358
asg7
I00
ssS'd006.s007.t006'
p1359
(dp1360
g4
(lp1361
S'circus%1:04:01::'
p1362
asg7
I00
ssS'd005.s002.t002'
p1363
(dp1364
g4
(lp1365
S'bank%1:14:00::'
p1366
asg7
I00
ssS'd006.s007.t004'
p1367
(dp1368
g4
(lp1369
S'use%1:04:00::'
p1370
asg7
I00
ssS'd006.s007.t002'
p1371
(dp1372
g4
(lp1373
S'trial%1:04:02::'
p1374
asg7
I00
ssS'd006.s007.t003'
p1375
(dp1376
g4
(lp1377
S'reporter%1:18:00::'
p1378
asg7
I00
ssS'd005.s002.t003'
p1379
(dp1380
g4
(lp1381
S'state%1:14:01::'
p1382
asg7
I00
ssS'd011.s010.t008'
p1383
(dp1384
g4
(lp1385
S'london%1:15:00::'
p1386
asg7
I00
ssS'd011.s010.t009'
p1387
(dp1388
g4
(lp1389
S'record%1:04:00::'
p1390
asg7
I00
ssS'd006.s007.t007'
p1391
(dp1392
g4
(lp1393
S'atmosphere%1:26:01::'
p1394
asg7
I00
ssS'd011.s010.t002'
p1395
(dp1396
g4
(lp1397
S'selection%1:09:00::'
p1398
asg7
I00
ssS'd011.s010.t003'
p1399
(dp1400
g4
(lp1401
S'goalkeeper%1:18:00::'
p1402
asg7
I00
ssS'd011.s010.t001'
p1403
(dp1404
g4
(lp1405
S'peak%1:26:00::'
p1406
asg7
I00
ssS'd011.s010.t006'
p1407
(dp1408
g4
(lp1409
S'england%1:15:00::'
p1410
asg7
I00
ssS'd011.s010.t007'
p1411
(dp1412
g4
(lp1413
S'game%1:04:03::'
p1414
asg7
I00
ssS'd011.s010.t005'
p1415
(dp1416
g4
(lp1417
S'saturday%1:28:00::'
p1418
asg7
I00
ssS'd009.s012.t005'
p1419
(dp1420
g4
(lp1421
S'year%1:28:01::'
p1422
asg7
I00
ssS'd009.s012.t004'
p1423
(dp1424
g4
(lp1425
S'output%1:23:00::'
p1426
asg7
I00
ssS'd009.s012.t003'
p1427
(dp1428
g4
(lp1429
S'drop%1:07:00::'
p1430
asg7
I00
ssS'd009.s012.t002'
p1431
(dp1432
g4
(lp1433
S'economy%1:14:00::'
p1434
asg7
I00
ssS'd009.s012.t001'
p1435
(dp1436
g4
(lp1437
S'mexico%1:15:00::'
p1438
asg7
I00
ssS'd005.s004.t006'
p1439
(dp1440
g4
(lp1441
S'state%1:14:00::'
p1442
asg7
I00
ssS'd005.s004.t007'
p1443
(dp1444
g4
(lp1445
S'support%1:21:01::'
p1446
asg7
I00
ssS'd005.s004.t001'
p1447
(dp1448
g4
(lp1449
S'report%1:10:00::'
p1450
asg7
I00
ssS'd005.s004.t002'
p1451
(dp1452
g4
(lp1453
S'us%1:15:00::'
p1454
asg7
I00
ssS'd005.s004.t003'
p1455
(dp1456
g4
(lp1457
S'broadcaster%1:18:00::'
p1458
asg7
I00
ssS'd006.s007.t001'
p1459
(dp1460
g4
(lp1461
S'reporting%1:10:00::'
p1462
asg7
I00
ssS'd006.s018.t004'
p1463
(dp1464
g4
(lp1465
S'year%1:28:01::'
p1466
asg7
I00
ssS'd013.s018.t001'
p1467
(dp1468
g4
(lp1469
S'us%1:15:00::'
p1470
asg7
I00
ssS'd013.s018.t005'
p1471
(dp1472
g4
(lp1473
S'september%1:28:00::'
p1474
asg7
I00
ssS'd013.s018.t006'
p1475
(dp1476
g4
(lp1477
S'height%1:26:00::'
p1478
asg7
I00
ssS'd006.s018.t003'
p1479
(dp1480
g4
(lp1481
S'lawyer%1:18:00::'
p1482
asg7
I00
ssS'd013.s005.t004'
p1483
(dp1484
g4
(lp1485
S'string%1:14:00::'
p1486
asg7
I00
ssS'd001.s025.t010'
p1487
(dp1488
g4
(lp1489
S'claim%1:04:00::'
p1490
asg7
I00
ssS'd001.s025.t011'
p1491
(dp1492
g4
(lp1493
S'week%1:28:02::'
p1494
asg7
I00
ssS'd006.s029.t003'
p1495
(dp1496
g4
(lp1497
S'argument%1:10:02::'
p1498
asg7
I00
ssS'd006.s029.t001'
p1499
(dp1500
g4
(lp1501
S'lawyer%1:18:00::'
p1502
asg7
I00
ssS'd006.s029.t006'
p1503
(dp1504
g4
(lp1505
S'court%1:14:00::'
p1506
asg7
I00
ssS'd006.s029.t004'
p1507
(dp1508
g4
(lp1509
S'change%1:24:00::'
p1510
asg7
I00
ssS'd006.s029.t005'
p1511
(dp1512
g4
(lp1513
S'adaptation%1:22:00::'
p1514
asg7
I00
ssS'd001.s029.t001'
p1515
(dp1516
g4
(lp1517
S'heavyweight%1:18:00::'
p1518
asg7
I00
ssS'd010.s002.t014'
p1519
(dp1520
g4
(lp1521
S'case%1:04:00::'
p1522
asg7
I00
ssS'd010.s002.t012'
p1523
(dp1524
g4
(lp1525
S'dinner%1:13:00::'
p1526
asg7
I00
ssS'd001.s018.t012'
p1527
(dp1528
g4
(lp1529
S'action%1:04:04::'
p1530
asg7
I00
ssS'd001.s018.t010'
p1531
(dp1532
g4
(lp1533
S'country%1:14:00::'
p1534
asg7
I00
ssS'd001.s018.t011'
p1535
(dp1536
g4
(lp1537
S'imperative%1:04:00::'
p1538
asg7
I00
ssS'd007.s001.t001'
p1539
(dp1540
g4
(lp1541
S'sport%1:04:00::'
p1542
asg7
I00
ssS'd007.s001.t003'
p1543
(dp1544
g4
(lp1545
S'law%1:14:00::'
p1546
asg7
I00
ssS'd007.s001.t002'
p1547
(dp1548
g4
(lp1549
S'fraud%1:04:00::'
p1550
asg7
I00
ssS'd007.s009.t005'
p1551
(dp1552
g4
(lp1553
S'team%1:14:00::'
p1554
asg7
I00
ssS'd007.s009.t004'
p1555
(dp1556
g4
(lp1557
S'fact%1:09:01::'
p1558
asg7
I00
ssS'd007.s009.t007'
p1559
(dp1560
g4
(lp1561
S'organization%1:14:00::'
p1562
asg7
I00
ssS'd007.s009.t001'
p1563
(dp1564
g4
(lp1565
S'part%1:24:00::'
p1566
asg7
I00
ssS'd007.s009.t003'
p1567
(dp1568
g4
(lp1569
S'case%1:11:00::'
p1570
asg7
I00
ssS'd007.s009.t002'
p1571
(dp1572
g4
(lp1573
S'debate%1:10:01::'
p1574
asg7
I00
ssS'd009.s021.t001'
p1575
(dp1576
g4
(lp1577
S'brazil%1:15:00::'
p1578
asg7
I00
ssS'd004.s003.t012'
p1579
(dp1580
g4
(lp1581
S'war%1:04:00::'
p1582
asg7
I00
ssS'd009.s021.t003'
p1583
(dp1584
g4
(lp1585
S'popularity%1:07:00::'
p1586
asg7
I00
ssS'd009.s021.t002'
p1587
(dp1588
g4
(lp1589
S'performance%1:22:00::'
p1590
asg7
I00
ssS'd007.s009.t009'
p1591
(dp1592
g4
(lp1593
S'nobility%1:07:00::'
p1594
asg7
I00
ssS'd009.s021.t004'
p1595
(dp1596
g4
(lp1597
S'president%1:18:00::'
p1598
asg7
I00
ssS'd009.s021.t007'
p1599
(dp1600
g4
(lp1601
S'progress%1:04:01::'
p1602
asg7
I00
ssS'd009.s021.t006'
p1603
(dp1604
g4
(lp1605
S'sense%1:09:05::'
p1606
asg7
I00
ssS'd008.s011.t003'
p1607
(dp1608
g4
(lp1609
S'earth%1:17:00::'
p1610
asg7
I00
ssS'd008.s011.t002'
p1611
(dp1612
g4
(lp1613
S'microbe%1:05:00::'
p1614
asg7
I00
ssS'd008.s011.t001'
p1615
(dp1616
g4
(lp1617
S'study%1:09:02::'
p1618
asg7
I00
ssS'd012.s020.t003'
p1619
(dp1620
g4
(lp1621
S'flow%1:26:00::'
p1622
asg7
I00
ssS'd012.s020.t001'
p1623
(dp1624
g4
(lp1625
S'rise%1:11:00::'
p1626
asg7
I00
ssS'd007.s016.t005'
p1627
(dp1628
g4
(lp1629
S'action%1:04:02::'
p1630
asg7
I00
ssS'd007.s016.t004'
p1631
(dp1632
g4
(lp1633
S'violator%1:18:01::'
p1634
asg7
I00
ssS'd007.s016.t001'
p1635
(dp1636
g4
(lp1637
S'question%1:10:01::'
p1638
asg7
I00
ssS'd007.s016.t003'
p1639
(dp1640
g4
(lp1641
S'advantage%1:07:01::'
p1642
asg7
I00
ssS'd007.s016.t002'
p1643
(dp1644
g4
(lp1645
S'type%1:09:00::'
p1646
asg7
I00
ssS'd009.s015.t008'
p1647
(dp1648
g4
(lp1649
S'case%1:11:00::'
p1650
asg7
I00
ssS'd009.s015.t006'
p1651
(dp1652
g4
(lp1653
S'government%1:14:00::'
p1654
asg7
I00
ssS'd009.s015.t007'
p1655
(dp1656
g4
(lp1657
S'year%1:28:01::'
p1658
asg7
I00
ssS'd009.s015.t004'
p1659
(dp1660
g4
(lp1661
S'congress%1:14:02::'
p1662
asg7
I00
ssS'd009.s015.t002'
p1663
(dp1664
g4
(lp1665
S'confidence%1:26:02::'
p1666
asg7
I00
ssS'd009.s015.t003'
p1667
(dp1668
g4
(lp1669
S'country%1:14:00::'
p1670
asg7
I00
ssS'd008.s002.t003'
p1671
(dp1672
g4
(lp1673
S'arsenic%1:27:00::'
p1674
asg7
I00
ssS'd008.s002.t002'
p1675
(dp1676
g4
(lp1677
S'bacterium%1:05:00::'
p1678
asg7
I00
ssS'd008.s002.t001'
p1679
(dp1680
g4
(lp1681
S'discovery%1:10:00::'
p1682
asg7
I00
ssS'd008.s002.t006'
p1683
(dp1684
g4
(lp1685
S'form%1:14:02::'
p1686
asg7
I00
ssS'd008.s002.t005'
p1687
(dp1688
g4
(lp1689
S'scope%1:07:00::'
p1690
asg7
I00
ssS'd008.s002.t004'
p1691
(dp1692
g4
(lp1693
S'nutrient%1:03:00::'
p1694
asg7
I00
ssS'd007.s018.t003'
p1695
(dp1696
g4
(lp1697
S'club%1:14:00::'
p1698
asg7
I00
ssS'd007.s018.t002'
p1699
(dp1700
g4
(lp1701
S'game%1:04:03::'
p1702
asg7
I00
ssS'd007.s018.t001'
p1703
(dp1704
g4
(lp1705
S'strategy%1:09:00::'
p1706
asg7
I00
ssS'd008.s017.t001'
p1707
(dp1708
g4
(lp1709
S'discovery%1:10:00::'
p1710
asg7
I00
ssS'd007.s018.t004'
p1711
(dp1712
g4
(lp1713
S'player%1:18:01::'
p1714
asg7
I00
ssS'd006.s012.t005'
p1715
(dp1716
g4
(lp1717
S'question%1:10:01::'
p1718
asg7
I00
ssS'd001.s015.t006'
p1719
(dp1720
g4
(lp1721
S'cut%1:04:05::'
p1722
asg7
I00
ssS'd001.s015.t007'
p1723
(dp1724
g4
(lp1725
S'observer%1:18:01::'
p1726
asg7
I00
ssS'd001.s015.t004'
p1727
(dp1728
g4
(lp1729
S'action%1:04:04::'
p1730
asg7
I00
ssS'd001.s015.t005'
p1731
(dp1732
g4
(lp1733
S'text%1:10:01::'
p1734
aS'text%1:10:00::'
p1735
asg7
I00
ssS'd001.s015.t002'
p1736
(dp1737
g4
(lp1738
S'deal%1:10:00::'
p1739
asg7
I00
ssS'd006.s032.t003'
p1740
(dp1741
g4
(lp1742
S'century%1:28:00::'
p1743
asg7
I00
ssS'd006.s032.t001'
p1744
(dp1745
g4
(lp1746
S'case%1:04:00::'
p1747
asg7
I00
ssS'd013.s018.t007'
p1748
(dp1749
g4
(lp1750
S'crisis%1:26:00::'
p1751
asg7
I00
ssS'd001.s020.t006'
p1752
(dp1753
g4
(lp1754
S'adviser%1:18:00::'
p1755
asg7
I00
ssS'd001.s020.t002'
p1756
(dp1757
g4
(lp1758
S'hegemony%1:14:00::'
p1759
asg7
I00
ssS'd001.s020.t003'
p1760
(dp1761
g4
(lp1762
S'mexico%1:15:00::'
p1763
asg7
I00
ssS'd001.s020.t001'
p1764
(dp1765
g4
(lp1766
S'game%1:09:00::'
p1767
asg7
I00
ssS'd003.s013.t012'
p1768
(dp1769
g4
(lp1770
S'evening%1:28:00::'
p1771
asg7
I00
ssS'd005.s013.t004'
p1772
(dp1773
g4
(lp1774
S'support%1:21:01::'
p1775
asg7
I00
ssS'd005.s013.t005'
p1776
(dp1777
g4
(lp1778
S'june%1:28:00::'
p1779
asg7
I00
ssS'd012.s004.t001'
p1780
(dp1781
g4
(lp1782
S'viewpoint%1:09:00::'
p1783
asg7
I00
ssS'd007.s009.t008'
p1784
(dp1785
g4
(lp1786
S'hymn%1:10:00::'
p1787
asg7
I00
ssS'd001.s013.t008'
p1788
(dp1789
g4
(lp1790
S'emission%1:27:00::'
p1791
asg7
I00
ssS'd001.s013.t005'
p1792
(dp1793
g4
(lp1794
S'language%1:10:03::'
p1795
asg7
I00
ssS'd001.s013.t006'
p1796
(dp1797
g4
(lp1798
S'cut%1:04:05::'
p1799
asg7
I00
ssS'd001.s013.t001'
p1800
(dp1801
g4
(lp1802
S'u.s.%1:14:00::'
p1803
asg7
I00
ssS'd001.s013.t002'
p1804
(dp1805
g4
(lp1806
S'climate%1:26:00::'
p1807
asg7
I00
ssS'd001.s013.t003'
p1808
(dp1809
g4
(lp1810
S'envoy%1:18:00::'
p1811
asg7
I00
ssS'd011.s009.t001'
p1812
(dp1813
g4
(lp1814
S'player%1:18:01::'
p1815
asg7
I00
ssS'd011.s009.t002'
p1816
(dp1817
g4
(lp1818
S'experience%1:09:01::'
p1819
asg7
I00
ssS'd011.s009.t003'
p1820
(dp1821
g4
(lp1822
S'area%1:26:00::'
p1823
asg7
I00
ssS'd001.s026.t008'
p1824
(dp1825
g4
(lp1826
S'draft%1:10:00::'
p1827
asg7
I00
ssS'd001.s026.t009'
p1828
(dp1829
g4
(lp1830
S'proposal%1:10:00::'
p1831
asg7
I00
ssS'd001.s026.t004'
p1832
(dp1833
g4
(lp1834
S'day%1:28:00::'
p1835
asg7
I00
ssS'd001.s026.t005'
p1836
(dp1837
g4
(lp1838
S'activist%1:18:00::'
p1839
asg7
I00
ssS'd001.s026.t006'
p1840
(dp1841
g4
(lp1842
S'show%1:04:00::'
p1843
asg7
I00
ssS'd001.s026.t007'
p1844
(dp1845
g4
(lp1846
S'country%1:14:00::'
p1847
asg7
I00
ssS'd001.s026.t001'
p1848
(dp1849
g4
(lp1850
S'gathering%1:14:00::'
p1851
asg7
I00
ssS'd001.s026.t002'
p1852
(dp1853
g4
(lp1854
S'people%1:14:00::'
p1855
asg7
I00
ssS'd008.s014.t004'
p1856
(dp1857
g4
(lp1858
S'element%1:27:00::'
p1859
asg7
I00
ssS'd008.s014.t005'
p1860
(dp1861
g4
(lp1862
S'biochemistry%1:09:00::'
p1863
asg7
I00
ssS'd008.s014.t006'
p1864
(dp1865
g4
(lp1866
S'set%1:14:00::'
p1867
asg7
I00
ssS'd008.s014.t007'
p1868
(dp1869
g4
(lp1870
S'element%1:27:00::'
p1871
asg7
I00
ssS'd008.s014.t002'
p1872
(dp1873
g4
(lp1874
S'environment%1:26:00::'
p1875
asg7
I00
ssS'd008.s014.t003'
p1876
(dp1877
g4
(lp1878
S'organism%1:03:00::'
p1879
asg7
I00
ssS'd008.s014.t008'
p1880
(dp1881
g4
(lp1882
S'life%1:19:00::'
p1883
asg7
I00
ssS'd006.s007.t010'
p1884
(dp1885
g4
(lp1886
S'passion%1:12:00::'
p1887
asg7
I00
ssS'd011.s010.t010'
p1888
(dp1889
g4
(lp1890
S'goalkeeper%1:18:00::'
p1891
asg7
I00
ssS'd011.s010.t012'
p1892
(dp1893
g4
(lp1894
S'match%1:11:00::'
p1895
asg7
I00
ssS'd010.s014.t003'
p1896
(dp1897
g4
(lp1898
S'rule%1:10:00::'
p1899
asg7
I00
ssS'd010.s014.t002'
p1900
(dp1901
g4
(lp1902
S'ethic%1:10:00::'
p1903
asg7
I00
ssS'd010.s014.t001'
p1904
(dp1905
g4
(lp1906
S'nothing%1:23:00::'
p1907
asg7
I00
ssS'd013.s009.t002'
p1908
(dp1909
g4
(lp1910
S'dollar%1:23:00::'
p1911
asg7
I00
ssS'd013.s020.t003'
p1912
(dp1913
g4
(lp1914
S'number%1:07:00::'
p1915
asg7
I00
ssS'd001.s025.t008'
p1916
(dp1917
g4
(lp1918
S'meeting%1:14:00::'
p1919
asg7
I00
ssS'd001.s025.t005'
p1920
(dp1921
g4
(lp1922
S'plane%1:06:01::'
p1923
asg7
I00
ssS'd001.s025.t004'
p1924
(dp1925
g4
(lp1926
S'minister%1:18:02::'
p1927
asg7
I00
ssS'd001.s025.t007'
p1928
(dp1929
g4
(lp1930
S'hall%1:06:03::'
p1931
asg7
I00
ssS'd001.s025.t001'
p1932
(dp1933
g4
(lp1934
S'official%1:18:01::'
p1935
asg7
I00
ssS'd010.s018.t011'
p1936
(dp1937
g4
(lp1938
S'president%1:18:01::'
p1939
asg7
I00
ssS'd013.s020.t001'
p1940
(dp1941
g4
(lp1942
S'investor%1:18:00::'
p1943
asg7
I00
ssS'd012.s021.t012'
p1944
(dp1945
g4
(lp1946
S'google%1:10:00::'
p1947
asg7
I00
ssS'd013.s010.t002'
p1948
(dp1949
g4
(lp1950
S'chairman%1:18:01::'
p1951
asg7
I00
ssS'd013.s010.t003'
p1952
(dp1953
g4
(lp1954
S'responsiveness%1:07:00::'
p1955
asg7
I00
ssS'd013.s010.t004'
p1956
(dp1957
g4
(lp1958
S'bank%1:14:00::'
p1959
asg7
I00
ssS'd001.s018.t004'
p1960
(dp1961
g4
(lp1962
S'china%1:15:00::'
p1963
asg7
I00
ssS'd001.s018.t007'
p1964
(dp1965
g4
(lp1966
S'nation%1:14:00::'
p1967
asg7
I00
ssS'd002.s009.t003'
p1968
(dp1969
g4
(lp1970
S'point%1:23:01::'
p1971
asg7
I00
ssS'd001.s018.t001'
p1972
(dp1973
g4
(lp1974
S'battle%1:04:02::'
p1975
asg7
I00
ssS'd001.s018.t003'
p1976
(dp1977
g4
(lp1978
S'planet%1:17:00::'
p1979
asg7
I00
ssS'd001.s018.t002'
p1980
(dp1981
g4
(lp1982
S'economy%1:14:00::'
p1983
asg7
I00
ssS'd001.s018.t008'
p1984
(dp1985
g4
(lp1986
S'world%1:17:00::'
p1987
asg7
I00
ssS'd006.s010.t006'
p1988
(dp1989
g4
(lp1990
S'week%1:28:02::'
p1991
asg7
I00
ssS'd004.s012.t001'
p1992
(dp1993
g4
(lp1994
S'u.s.%1:15:00::'
p1995
asg7
I00
ssS'd004.s012.t006'
p1996
(dp1997
g4
(lp1998
S'government%1:14:00::'
p1999
asg7
I00
ssS'd013.s020.t006'
p2000
(dp2001
g4
(lp2002
S'misconduct%1:04:00::'
p2003
asg7
I00
ssS'd013.s020.t005'
p2004
(dp2005
g4
(lp2006
S'compensation%1:21:00::'
p2007
asg7
I00
ssS'd005.s009.t003'
p2008
(dp2009
g4
(lp2010
S'crisis%1:26:00::'
p2011
asg7
I00
ssS'd005.s009.t002'
p2012
(dp2013
g4
(lp2014
S'height%1:26:00::'
p2015
asg7
I00
ssS'd005.s009.t001'
p2016
(dp2017
g4
(lp2018
S'bank%1:14:00::'
p2019
asg7
I00
ssS'd005.s009.t005'
p2020
(dp2021
g4
(lp2022
S'bank%1:14:00::'
p2023
asg7
I00
ssS'd005.s009.t004'
p2024
(dp2025
g4
(lp2026
S'investment%1:04:00::'
p2027
asg7
I00
ssS'd013.s020.t004'
p2028
(dp2029
g4
(lp2030
S'claim%1:10:02::'
p2031
asg7
I00
ssS'd003.s002.t002'
p2032
(dp2033
g4
(lp2034
S'heading%1:15:00::'
p2035
asg7
I00
ssS'd003.s002.t003'
p2036
(dp2037
g4
(lp2038
S'friday%1:28:00::'
p2039
asg7
I00
ssS'd003.s002.t004'
p2040
(dp2041
g4
(lp2042
S'market%1:14:01::'
p2043
asg7
I00
ssS'd003.s002.t005'
p2044
(dp2045
g4
(lp2046
S'indicator%1:10:00::'
p2047
asg7
I00
ssS'd003.s002.t007'
p2048
(dp2049
g4
(lp2050
S'dollar%1:23:00::'
p2051
asg7
I00
ssS'd011.s017.t001'
p2052
(dp2053
g4
(lp2054
S'game%1:04:03::'
p2055
asg7
I00
ssS'd007.s019.t008'
p2056
(dp2057
g4
(lp2058
S'game%1:04:03::'
p2059
asg7
I00
ssS'd007.s019.t001'
p2060
(dp2061
g4
(lp2062
S'advantage%1:07:01::'
p2063
asg7
I00
ssS'd007.s019.t002'
p2064
(dp2065
g4
(lp2066
S'fact%1:09:01::'
p2067
asg7
I00
ssS'd007.s019.t003'
p2068
(dp2069
g4
(lp2070
S'player%1:18:01::'
p2071
asg7
I00
ssS'd007.s019.t004'
p2072
(dp2073
g4
(lp2074
S'phase%1:28:00::'
p2075
asg7
I00
ssS'd007.s019.t005'
p2076
(dp2077
g4
(lp2078
S'championship%1:11:00::'
p2079
asg7
I00
ssS'd007.s019.t006'
p2080
(dp2081
g4
(lp2082
S'card%1:27:00::'
p2083
asg7
I00
ssS'd007.s019.t007'
p2084
(dp2085
g4
(lp2086
S'participation%1:04:00::'
p2087
asg7
I00
ssS'd011.s023.t001'
p2088
(dp2089
g4
(lp2090
S'scorer%1:18:00::'
p2091
asg7
I00
ssS'd011.s023.t003'
p2092
(dp2093
g4
(lp2094
S'goal%1:04:00::'
p2095
asg7
I00
ssS'd001.s013.t010'
p2096
(dp2097
g4
(lp2098
S'one%1:09:00::'
p2099
asg7
I00
ssS'd008.s022.t001'
p2100
(dp2101
g4
(lp2102
S'arsenic%1:27:00::'
p2103
asg7
I00
ssS'd008.s022.t002'
p2104
(dp2105
g4
(lp2106
S'phosphorus%1:27:00::'
p2107
asg7
I00
ssS'd008.s022.t004'
p2108
(dp2109
g4
(lp2110
S'machinery%1:06:00::'
p2111
asg7
I00
ssS'd001.s026.t012'
p2112
(dp2113
g4
(lp2114
S'challenge%1:26:00::'
p2115
asg7
I00
ssS'd001.s026.t011'
p2116
(dp2117
g4
(lp2118
S'e-mail%1:10:00::'
p2119
asg7
I00
ssS'd001.s026.t010'
p2120
(dp2121
g4
(lp2122
S'paper%1:27:00::'
p2123
asg7
I00
ssS'd008.s014.t012'
p2124
(dp2125
g4
(lp2126
S'science%1:09:00::'
p2127
asg7
I00
ssS'd008.s014.t011'
p2128
(dp2129
g4
(lp2130
S'space%1:15:01::'
p2131
asg7
I00
ssS'd008.s014.t010'
p2132
(dp2133
g4
(lp2134
S'professor%1:18:00::'
p2135
asg7
I00
ssS'd007.s020.t014'
p2136
(dp2137
g4
(lp2138
S'suspension%1:04:01::'
p2139
asg7
I00
ssS'd004.s004.t001'
p2140
(dp2141
g4
(lp2142
S'company%1:14:01::'
p2143
asg7
I00
ssS'd004.s004.t003'
p2144
(dp2145
g4
(lp2146
S'field%1:15:00::'
p2147
asg7
I00
ssS'd004.s004.t002'
p2148
(dp2149
g4
(lp2150
S'stake%1:21:02::'
p2151
asg7
I00
ssS'd008.s027.t002'
p2152
(dp2153
g4
(lp2154
S'life%1:19:00::'
p2155
asg7
I00
ssS'd008.s027.t003'
p2156
(dp2157
g4
(lp2158
S'life%1:19:00::'
p2159
asg7
I00
ssS'd008.s027.t001'
p2160
(dp2161
g4
(lp2162
S'way%1:04:01::'
p2163
asg7
I00
ssS'd008.s027.t006'
p2164
(dp2165
g4
(lp2166
S'research%1:04:00::'
p2167
asg7
I00
ssS'd008.s027.t007'
p2168
(dp2169
g4
(lp2170
S'team%1:14:00::'
p2171
asg7
I00
ssS'd008.s027.t004'
p2172
(dp2173
g4
(lp2174
S'earth%1:17:00::'
p2175
asg7
I00
ssS'd008.s027.t005'
p2176
(dp2177
g4
(lp2178
S'part%1:24:00::'
p2179
asg7
I00
ssS'd010.s018.t007'
p2180
(dp2181
g4
(lp2182
S'court%1:14:00::'
p2183
asg7
I00
ssS'd010.s018.t006'
p2184
(dp2185
g4
(lp2186
S'justice%1:18:00::'
p2187
asg7
I00
ssS'd010.s018.t005'
p2188
(dp2189
g4
(lp2190
S'claim%1:10:02::'
p2191
asg7
I00
ssS'd010.s018.t004'
p2192
(dp2193
g4
(lp2194
S'code%1:10:01::'
p2195
asg7
I00
ssS'd010.s018.t003'
p2196
(dp2197
g4
(lp2198
S'indifference%1:07:01::'
p2199
asg7
I00
ssS'd010.s018.t002'
p2200
(dp2201
g4
(lp2202
S'ethic%1:10:00::'
p2203
asg7
I00
ssS'd010.s018.t001'
p2204
(dp2205
g4
(lp2206
S'breach%1:04:01::'
p2207
asg7
I00
ssS'd005.s010.t002'
p2208
(dp2209
g4
(lp2210
S'cash%1:21:00::'
p2211
asg7
I00
ssS'd005.s010.t005'
p2212
(dp2213
g4
(lp2214
S'state%1:14:01::'
p2215
asg7
I00
ssS'd005.s010.t004'
p2216
(dp2217
g4
(lp2218
S'liability%1:26:01::'
p2219
asg7
I00
ssS'd010.s018.t008'
p2220
(dp2221
g4
(lp2222
S'rule%1:10:00::'
p2223
asg7
I00
ssS'd012.s006.t008'
p2224
(dp2225
g4
(lp2226
S'left%1:14:00::'
p2227
asg7
I00
ssS'd004.s003.t013'
p2228
(dp2229
g4
(lp2230
S'sanction%1:04:02::'
p2231
asg7
I00
ssS'd011.s007.t008'
p2232
(dp2233
g4
(lp2234
S'cup%1:06:01::'
p2235
asg7
I00
ssS'd011.s007.t009'
p2236
(dp2237
g4
(lp2238
S'competition%1:11:00::'
p2239
asg7
I00
ssS'd011.s007.t002'
p2240
(dp2241
g4
(lp2242
S'league%1:14:01::'
p2243
asg7
I00
ssS'd011.s007.t003'
p2244
(dp2245
g4
(lp2246
S'club%1:14:00::'
p2247
asg7
I00
ssS'd005.s002.t004'
p2248
(dp2249
g4
(lp2250
S'shackle%1:06:00::'
p2251
asg7
I00
ssS'd011.s007.t006'
p2252
(dp2253
g4
(lp2254
S'year%1:28:01::'
p2255
asg7
I00
ssS'd011.s007.t007'
p2256
(dp2257
g4
(lp2258
S'league%1:14:01::'
p2259
asg7
I00
ssS'd005.s002.t001'
p2260
(dp2261
g4
(lp2262
S'us%1:15:00::'
p2263
asg7
I00
ssS'd009.s027.t009'
p2264
(dp2265
g4
(lp2266
S'company%1:14:01::'
p2267
asg7
I00
ssS'd009.s027.t007'
p2268
(dp2269
g4
(lp2270
S'president%1:18:00::'
p2271
asg7
I00
ssS'd009.s027.t004'
p2272
(dp2273
g4
(lp2274
S'view%1:09:02::'
p2275
asg7
I00
ssS'd009.s027.t003'
p2276
(dp2277
g4
(lp2278
S'venezuela%1:15:00::'
p2279
asg7
I00
ssS'd009.s027.t002'
p2280
(dp2281
g4
(lp2282
S'respondent%1:18:00::'
p2283
asg7
I00
ssS'd009.s006.t003'
p2284
(dp2285
g4
(lp2286
S'attitude%1:09:00::'
p2287
asg7
I00
ssS'd008.s019.t003'
p2288
(dp2289
g4
(lp2290
S'microbe%1:05:00::'
p2291
asg7
I00
ssS'd008.s019.t002'
p2292
(dp2293
g4
(lp2294
S'phosphorus%1:27:00::'
p2295
asg7
I00
ssS'd008.s019.t001'
p2296
(dp2297
g4
(lp2298
S'arsenic%1:27:00::'
p2299
asg7
I00
ssS'd009.s006.t001'
p2300
(dp2301
g4
(lp2302
S'poll%1:09:00::'
p2303
asg7
I00
ssS'd007.s025.t007'
p2304
(dp2305
g4
(lp2306
S'wittiness%1:10:00::'
p2307
asg7
I00
ssS'd007.s025.t006'
p2308
(dp2309
g4
(lp2310
S'case%1:11:00::'
p2311
asg7
I00
ssS'd007.s025.t005'
p2312
(dp2313
g4
(lp2314
S'occasion%1:11:00::'
p2315
asg7
I00
ssS'd007.s025.t004'
p2316
(dp2317
g4
(lp2318
S'fraud%1:04:00::'
p2319
asg7
I00
ssS'd007.s025.t003'
p2320
(dp2321
g4
(lp2322
S'law%1:14:00::'
p2323
asg7
I00
ssS'd007.s025.t002'
p2324
(dp2325
g4
(lp2326
S'wittiness%1:10:00::'
p2327
asg7
I00
ssS'd007.s025.t001'
p2328
(dp2329
g4
(lp2330
S'border%1:15:00::'
p2331
asg7
I00
ssS'd011.s007.t005'
p2332
(dp2333
g4
(lp2334
S'england%1:15:00::'
p2335
asg7
I00
ssS'd002.s010.t002'
p2336
(dp2337
g4
(lp2338
S'halftime%1:28:00::'
p2339
asg7
I00
ssS'd002.s010.t001'
p2340
(dp2341
g4
(lp2342
S'game%1:04:03::'
p2343
asg7
I00
ssS'd002.s010.t006'
p2344
(dp2345
g4
(lp2346
S'pressure%1:07:00::'
p2347
asg7
I00
ssS'd002.s010.t007'
p2348
(dp2349
g4
(lp2350
S'game%1:04:03::'
p2351
asg7
I00
ssS'd002.s010.t005'
p2352
(dp2353
g4
(lp2354
S'hand%1:08:00::'
p2355
asg7
I00
ssS'd012.s020.t006'
p2356
(dp2357
g4
(lp2358
S'pay%1:21:01::'
p2359
asg7
I00
ssS'd009.s017.t003'
p2360
(dp2361
g4
(lp2362
S'country%1:14:00::'
p2363
asg7
I00
ssS'd009.s017.t004'
p2364
(dp2365
g4
(lp2366
S'recession%1:26:00::'
p2367
asg7
I00
ssS'd012.s020.t004'
p2368
(dp2369
g4
(lp2370
S'increase%1:07:00::'
p2371
asg7
I00
ssS'd009.s017.t005'
p2372
(dp2373
g4
(lp2374
S'recovery%1:11:00::'
p2375
asg7
I00
ssS'd002.s007.t002'
p2376
(dp2377
g4
(lp2378
S'end%1:11:00::'
p2379
asg7
I00
ssS'd010.s016.t010'
p2380
(dp2381
g4
(lp2382
S'event%1:03:00::'
p2383
asg7
I00
ssS'd002.s007.t001'
p2384
(dp2385
g4
(lp2386
S'scorer%1:18:00::'
p2387
asg7
I00
ssS'd012.s021.t009'
p2388
(dp2389
g4
(lp2390
S'american%1:18:00::'
p2391
asg7
I00
ssS'd012.s021.t008'
p2392
(dp2393
g4
(lp2394
S'immigrant%1:18:00::'
p2395
asg7
I00
ssS'd003.s002.t010'
p2396
(dp2397
g4
(lp2398
S'nasdaq%1:06:00::'
p2399
asg7
I00
ssS'd006.s004.t008'
p2400
(dp2401
g4
(lp2402
S'bed%1:06:00::'
p2403
asg7
I00
ssS'd009.s020.t004'
p2404
(dp2405
g4
(lp2406
S'chart%1:10:00::'
p2407
asg7
I00
ssS'd009.s020.t002'
p2408
(dp2409
g4
(lp2410
S'country%1:14:00::'
p2411
asg7
I00
ssS'd007.s010.t009'
p2412
(dp2413
g4
(lp2414
S'action%1:04:02::'
p2415
asg7
I00
ssS'd009.s020.t003'
p2416
(dp2417
g4
(lp2418
S'country%1:14:00::'
p2419
asg7
I00
ssS'd007.s010.t008'
p2420
(dp2421
g4
(lp2422
S'fraud%1:04:00::'
p2423
asg7
I00
ssS'd007.s022.t006'
p2424
(dp2425
g4
(lp2426
S'rule%1:10:00::'
p2427
asg7
I00
ssS'd007.s022.t004'
p2428
(dp2429
g4
(lp2430
S'decision%1:09:00::'
p2431
asg7
I00
ssS'd009.s020.t001'
p2432
(dp2433
g4
(lp2434
S'mood%1:26:00::'
p2435
asg7
I00
ssS'd007.s022.t002'
p2436
(dp2437
g4
(lp2438
S'spirit%1:26:00::'
p2439
asg7
I00
ssS'd007.s022.t003'
p2440
(dp2441
g4
(lp2442
S'part%1:24:00::'
p2443
asg7
I00
ssS'd007.s022.t001'
p2444
(dp2445
g4
(lp2446
S'action%1:04:02::'
p2447
asg7
I00
ssS'd008.s004.t001'
p2448
(dp2449
g4
(lp2450
S'organism%1:03:00::'
p2451
asg7
I00
ssS'd008.s004.t002'
p2452
(dp2453
g4
(lp2454
S'capability%1:26:00::'
p2455
asg7
I00
ssS'd007.s002.t004'
p2456
(dp2457
g4
(lp2458
S'sanction%1:04:02::'
p2459
asg7
I00
ssS'd009.s002.t001'
p2460
(dp2461
g4
(lp2462
S'support%1:04:00::'
p2463
asg7
I00
ssS'd007.s002.t001'
p2464
(dp2465
g4
(lp2466
S'trick%1:04:05::'
p2467
asg7
I00
ssS'd009.s002.t004'
p2468
(dp2469
g4
(lp2470
S'backing%1:04:00::'
p2471
asg7
I00
ssS'd007.s002.t003'
p2472
(dp2473
g4
(lp2474
S'will%1:09:01::'
p2475
asg7
I00
ssS'd012.s015.t008'
p2476
(dp2477
g4
(lp2478
S'wage%1:21:00::'
p2479
asg7
I00
ssS'd008.s028.t002'
p2480
(dp2481
g4
(lp2482
S'nasa%1:14:00::'
p2483
asg7
I00
ssS'd008.s028.t001'
p2484
(dp2485
g4
(lp2486
S'research%1:04:00::'
p2487
asg7
I00
ssS'd007.s022.t005'
p2488
(dp2489
g4
(lp2490
S'advantage%1:07:01::'
p2491
asg7
I00
ssS'd007.s006.t001'
p2492
(dp2493
g4
(lp2494
S'committee%1:14:00::'
p2495
asg7
I00
ssS'd007.s006.t002'
p2496
(dp2497
g4
(lp2498
S'discipline%1:04:01::'
p2499
asg7
I00
ssS'd007.s006.t004'
p2500
(dp2501
g4
(lp2502
S'game%1:04:03::'
p2503
asg7
I00
ssS'd007.s006.t005'
p2504
(dp2505
g4
(lp2506
S'trainer%1:18:00::'
p2507
asg7
I00
ssS'd007.s006.t006'
p2508
(dp2509
g4
(lp2510
S'team%1:14:00::'
p2511
asg7
I00
ssS'd007.s006.t008'
p2512
(dp2513
g4
(lp2514
S'amount%1:21:00::'
p2515
asg7
I00
ssS'd007.s006.t009'
p2516
(dp2517
g4
(lp2518
S'player%1:18:01::'
p2519
asg7
I00
ssS'd009.s011.t008'
p2520
(dp2521
g4
(lp2522
S'low%1:07:00::'
p2523
asg7
I00
ssS'd009.s011.t002'
p2524
(dp2525
g4
(lp2526
S'peru%1:15:00::'
p2527
asg7
I00
ssS'd009.s011.t001'
p2528
(dp2529
g4
(lp2530
S'example%1:09:00::'
p2531
asg7
I00
ssS'd009.s011.t006'
p2532
(dp2533
g4
(lp2534
S'support%1:04:00::'
p2535
asg7
I00
ssS'd009.s011.t007'
p2536
(dp2537
g4
(lp2538
S'democracy%1:14:00::'
p2539
asg7
I00
ssS'd007.s015.t002'
p2540
(dp2541
g4
(lp2542
S'complaint%1:10:00::'
p2543
asg7
I00
ssS'd009.s011.t005'
p2544
(dp2545
g4
(lp2546
S'year%1:28:01::'
p2547
asg7
I00
ssS'd006.s021.t006'
p2548
(dp2549
g4
(lp2550
S'prosecutor%1:18:00::'
p2551
asg7
I00
ssS'd006.s021.t007'
p2552
(dp2553
g4
(lp2554
S'pressure%1:07:00::'
p2555
asg7
I00
ssS'd006.s021.t004'
p2556
(dp2557
g4
(lp2558
S'judge%1:18:00::'
p2559
asg7
I00
ssS'd006.s021.t005'
p2560
(dp2561
g4
(lp2562
S'juror%1:18:00::'
p2563
asg7
I00
ssS'd006.s021.t008'
p2564
(dp2565
g4
(lp2566
S'verdict%1:04:00::'
p2567
asg7
I00
ssS'd006.s021.t009'
p2568
(dp2569
g4
(lp2570
S'decision%1:09:00::'
p2571
asg7
I00
ssS'd007.s011.t001'
p2572
(dp2573
g4
(lp2574
S'matter%1:09:00::'
p2575
asg7
I00
ssS'd007.s011.t002'
p2576
(dp2577
g4
(lp2578
S'type%1:09:00::'
p2579
asg7
I00
ssS'd007.s011.t003'
p2580
(dp2581
g4
(lp2582
S'damage%1:11:00::'
p2583
asg7
I00
ssS'd007.s011.t004'
p2584
(dp2585
g4
(lp2586
S'spirit%1:26:00::'
p2587
asg7
I00
ssS'd012.s017.t001'
p2588
(dp2589
g4
(lp2590
S'immigrant%1:18:00::'
p2591
asg7
I00
ssS'd012.s017.t002'
p2592
(dp2593
g4
(lp2594
S'sector%1:14:00::'
p2595
asg7
I00
ssS'd012.s017.t003'
p2596
(dp2597
g4
(lp2598
S'labor%1:14:00::'
p2599
asg7
I00
ssS'd012.s017.t004'
p2600
(dp2601
g4
(lp2602
S'one%1:09:00::'
p2603
asg7
I00
ssS'd012.s017.t005'
p2604
(dp2605
g4
(lp2606
S'sector%1:14:00::'
p2607
asg7
I00
ssS'd012.s017.t006'
p2608
(dp2609
g4
(lp2610
S'training%1:04:00::'
p2611
asg7
I00
ssS'd012.s017.t007'
p2612
(dp2613
g4
(lp2614
S'offer%1:10:00::'
p2615
asg7
I00
ssS'd012.s017.t008'
p2616
(dp2617
g4
(lp2618
S'employment%1:26:00::'
p2619
asg7
I00
ssS'd006.s014.t002'
p2620
(dp2621
g4
(lp2622
S'inspiration%1:09:02::'
p2623
asg7
I00
ssS'd006.s014.t001'
p2624
(dp2625
g4
(lp2626
S'crime%1:04:00::'
p2627
asg7
I00
ssS'd006.s014.t004'
p2628
(dp2629
g4
(lp2630
S'movie%1:10:00::'
p2631
asg7
I00
ssS'd012.s022.t001'
p2632
(dp2633
g4
(lp2634
S'migrant%1:18:00::'
p2635
asg7
I00
ssS'd012.s022.t002'
p2636
(dp2637
g4
(lp2638
S'contributor%1:18:00::'
p2639
asg7
I00
ssS'd012.s022.t005'
p2640
(dp2641
g4
(lp2642
S'budget%1:21:03::'
p2643
asg7
I00
ssS'd006.s031.t006'
p2644
(dp2645
g4
(lp2646
S'coverage%1:10:00::'
p2647
asg7
I00
ssS'd006.s031.t005'
p2648
(dp2649
g4
(lp2650
S'trial%1:04:02::'
p2651
asg7
I00
ssS'd006.s031.t004'
p2652
(dp2653
g4
(lp2654
S'conviction%1:04:00::'
p2655
asg7
I00
ssS'd006.s031.t003'
p2656
(dp2657
g4
(lp2658
S'decision%1:09:00::'
p2659
asg7
I00
ssS'd006.s031.t001'
p2660
(dp2661
g4
(lp2662
S'filing%1:10:00::'
p2663
asg7
I00
ssS'd006.s031.t008'
p2664
(dp2665
g4
(lp2666
S'rule%1:09:00::'
p2667
aS'rule%1:10:00::'
p2668
asg7
I00
ssS'd008.s007.t004'
p2669
(dp2670
g4
(lp2671
S'hydrogen%1:27:00::'
p2672
asg7
I00
ssS'd008.s007.t005'
p2673
(dp2674
g4
(lp2675
S'nitrogen%1:27:00::'
p2676
asg7
I00
ssS'd008.s007.t006'
p2677
(dp2678
g4
(lp2679
S'oxygen%1:27:00::'
p2680
asg7
I00
ssS'd008.s007.t007'
p2681
(dp2682
g4
(lp2683
S'phosphorus%1:27:00::'
p2684
asg7
I00
ssS'd008.s007.t001'
p2685
(dp2686
g4
(lp2687
S'element%1:27:00::'
p2688
asg7
I00
ssS'd008.s007.t002'
p2689
(dp2690
g4
(lp2691
S'life%1:19:00::'
p2692
asg7
I00
ssS'd008.s007.t003'
p2693
(dp2694
g4
(lp2695
S'carbon%1:27:00::'
p2696
asg7
I00
ssS'd008.s007.t008'
p2697
(dp2698
g4
(lp2699
S'sulfur%1:27:00::'
p2700
asg7
I00
ssS'd001.s028.t003'
p2701
(dp2702
g4
(lp2703
S'policy%1:10:00::'
p2704
asg7
I00
ssS'd011.s007.t010'
p2705
(dp2706
g4
(lp2707
S'shock%1:11:01::'
p2708
asg7
I00
ssS'd001.s004.t001'
p2709
(dp2710
g4
(lp2711
S'advance%1:11:01::'
p2712
asg7
I00
ssS'd001.s004.t002'
p2713
(dp2714
g4
(lp2715
S'negotiation%1:10:00::'
p2716
asg7
I00
ssS'd001.s004.t003'
p2717
(dp2718
g4
(lp2719
S'time%1:28:05::'
p2720
asg7
I00
ssS'd001.s004.t004'
p2721
(dp2722
g4
(lp2723
S'world%1:05:00::'
p2724
aS'world%1:17:00::'
p2725
asg7
I00
ssS'd001.s004.t005'
p2726
(dp2727
g4
(lp2728
S'leader%1:18:00::'
p2729
asg7
I00
ssS'd001.s004.t006'
p2730
(dp2731
g4
(lp2732
S'copenhagen%1:15:00::'
p2733
asg7
I00
ssS'd001.s004.t007'
p2734
(dp2735
g4
(lp2736
S'week%1:28:02::'
p2737
asg7
I00
ssS'd010.s012.t001'
p2738
(dp2739
g4
(lp2740
S'guest%1:18:00::'
p2741
asg7
I00
ssS'd010.s012.t002'
p2742
(dp2743
g4
(lp2744
S'dinner%1:14:00::'
p2745
asg7
I00
ssS'd009.s002.t002'
p2746
(dp2747
g4
(lp2748
S'democracy%1:14:00::'
p2749
asg7
I00
ssS'd001.s017.t001'
p2750
(dp2751
g4
(lp2752
S'trajectory%1:19:00::'
p2753
asg7
I00
ssS'd001.s017.t002'
p2754
(dp2755
g4
(lp2756
S'world%1:17:00::'
p2757
asg7
I00
ssS'd007.s002.t002'
p2758
(dp2759
g4
(lp2760
S'wittiness%1:10:00::'
p2761
asg7
I00
ssS'd006.s013.t011'
p2762
(dp2763
g4
(lp2764
S'carnival%1:04:02::'
p2765
asg7
I00
ssS'd006.s013.t012'
p2766
(dp2767
g4
(lp2768
S'atmosphere%1:26:01::'
p2769
asg7
I00
ssS'd006.s013.t013'
p2770
(dp2771
g4
(lp2772
S'trial%1:04:02::'
p2773
asg7
I00
ssS'd013.s003.t001'
p2774
(dp2775
g4
(lp2776
S'problem%1:26:00::'
p2777
asg7
I00
ssS'd013.s003.t002'
p2778
(dp2779
g4
(lp2780
S'home%1:15:02::'
p2781
asg7
I00
ssS'd013.s003.t004'
p2782
(dp2783
g4
(lp2784
S'industry%1:14:00::'
p2785
asg7
I00
ssS'd013.s003.t005'
p2786
(dp2787
g4
(lp2788
S'giant%1:14:00::'
p2789
asg7
I00
ssS'd013.s003.t006'
p2790
(dp2791
g4
(lp2792
S'past%1:28:01::'
p2793
asg7
I00
ssS'd013.s003.t007'
p2794
(dp2795
g4
(lp2796
S'usa%1:15:00::'
p2797
asg7
I00
ssS'd008.s010.t001'
p2798
(dp2799
g4
(lp2800
S'find%1:09:00::'
p2801
asg7
I00
ssS'd008.s010.t002'
p2802
(dp2803
g4
(lp2804
S'search%1:04:00::'
p2805
asg7
I00
ssS'd008.s010.t003'
p2806
(dp2807
g4
(lp2808
S'life%1:19:00::'
p2809
asg7
I00
ssS'd008.s010.t004'
p2810
(dp2811
g4
(lp2812
S'earth%1:17:00::'
p2813
asg7
I00
ssS'd008.s010.t005'
p2814
(dp2815
g4
(lp2816
S'researcher%1:18:00::'
p2817
asg7
I00
ssS'd008.s010.t006'
p2818
(dp2819
g4
(lp2820
S'life%1:19:00::'
p2821
asg7
I00
ssS'd008.s010.t007'
p2822
(dp2823
g4
(lp2824
S'life%1:19:00::'
p2825
asg7
I00
ssS'd010.s016.t009'
p2826
(dp2827
g4
(lp2828
S'program%1:04:00::'
p2829
asg7
I00
ssS'd010.s016.t001'
p2830
(dp2831
g4
(lp2832
S'code%1:10:01::'
p2833
asg7
I00
ssS'd010.s016.t003'
p2834
(dp2835
g4
(lp2836
S'judge%1:18:00::'
p2837
asg7
I00
ssS'd010.s016.t002'
p2838
(dp2839
g4
(lp2840
S'canon%1:10:00::'
p2841
asg7
I00
ssS'd010.s016.t005'
p2842
(dp2843
g4
(lp2844
S'organization%1:14:00::'
p2845
asg7
I00
ssS'd010.s016.t004'
p2846
(dp2847
g4
(lp2848
S'event%1:03:00::'
p2849
asg7
I00
ssS'd010.s016.t007'
p2850
(dp2851
g4
(lp2852
S'speaker%1:18:00::'
p2853
asg7
I00
ssS'd010.s016.t006'
p2854
(dp2855
g4
(lp2856
S'judge%1:18:00::'
p2857
asg7
I00
ssS'd008.s024.t010'
p2858
(dp2859
g4
(lp2860
S'arsenic%1:27:00::'
p2861
asg7
I00
ssS'd008.s003.t001'
p2862
(dp2863
g4
(lp2864
S'researcher%1:18:00::'
p2865
asg7
I00
ssS'd008.s003.t002'
p2866
(dp2867
g4
(lp2868
S'bacterium%1:05:00::'
p2869
asg7
I00
ssS'd008.s003.t003'
p2870
(dp2871
g4
(lp2872
S'earth%1:17:00::'
p2873
asg7
I00
ssS'd008.s003.t004'
p2874
(dp2875
g4
(lp2876
S'life%1:19:00::'
p2877
asg7
I00
ssS'd008.s003.t005'
p2878
(dp2879
g4
(lp2880
S'possibility%1:26:00::'
p2881
asg7
I00
ssS'd008.s003.t006'
p2882
(dp2883
g4
(lp2884
S'element%1:27:00::'
p2885
asg7
I00
ssS'd010.s010.t007'
p2886
(dp2887
g4
(lp2888
S'case%1:04:00::'
p2889
asg7
I00
ssS'd010.s019.t004'
p2890
(dp2891
g4
(lp2892
S'attorney%1:18:00::'
p2893
asg7
I00
ssS'd010.s019.t005'
p2894
(dp2895
g4
(lp2896
S'case%1:04:00::'
p2897
asg7
I00
ssS'd010.s019.t006'
p2898
(dp2899
g4
(lp2900
S'court%1:14:00::'
p2901
asg7
I00
ssS'd010.s019.t001'
p2902
(dp2903
g4
(lp2904
S'justice%1:18:00::'
p2905
asg7
I00
ssS'd010.s019.t003'
p2906
(dp2907
g4
(lp2908
S'fundraiser%1:11:00::'
p2909
asg7
I00
ssS'd010.s010.t006'
p2910
(dp2911
g4
(lp2912
S'conference%1:10:00::'
p2913
asg7
I00
ssS'd010.s011.t004'
p2914
(dp2915
g4
(lp2916
S'opponent%1:18:00::'
p2917
asg7
I00
ssS'd010.s011.t001'
p2918
(dp2919
g4
(lp2920
S'attendance%1:04:00::'
p2921
asg7
I00
ssS'd010.s011.t003'
p2922
(dp2923
g4
(lp2924
S'senate%1:14:01::'
p2925
asg7
I00
ssS'd010.s022.t002'
p2926
(dp2927
g4
(lp2928
S'activist%1:18:00::'
p2929
asg7
I00
ssS'd010.s022.t001'
p2930
(dp2931
g4
(lp2932
S'wife%1:18:00::'
p2933
asg7
I00
ssS'd010.s005.t004'
p2934
(dp2935
g4
(lp2936
S'argument%1:10:00::'
p2937
asg7
I00
ssS'd011.s011.t001'
p2938
(dp2939
g4
(lp2940
S'today%1:28:01::'
p2941
asg7
I00
ssS'd011.s011.t003'
p2942
(dp2943
g4
(lp2944
S'match%1:11:00::'
p2945
asg7
I00
ssS'd011.s011.t002'
p2946
(dp2947
g4
(lp2948
S'record%1:04:00::'
p2949
asg7
I00
ssS'd010.s025.t003'
p2950
(dp2951
g4
(lp2952
S'law%1:10:00::'
p2953
asg7
I00
ssS'd010.s025.t002'
p2954
(dp2955
g4
(lp2956
S'case%1:04:00::'
p2957
asg7
I00
ssS'd010.s025.t001'
p2958
(dp2959
g4
(lp2960
S'critic%1:18:02::'
p2961
asg7
I00
ssS'd009.s011.t011'
p2962
(dp2963
g4
(lp2964
S'year%1:28:01::'
p2965
asg7
I00
ssS'd006.s021.t011'
p2966
(dp2967
g4
(lp2968
S'weekend%1:28:00::'
p2969
asg7
I00
ssS'd012.s013.t004'
p2970
(dp2971
g4
(lp2972
S'knowledge%1:03:00::'
p2973
asg7
I00
ssS'd012.s013.t005'
p2974
(dp2975
g4
(lp2976
S'immigration%1:04:00::'
p2977
asg7
I00
ssS'd010.s010.t001'
p2978
(dp2979
g4
(lp2980
S'dinner%1:13:00::'
p2981
asg7
I00
ssS'd010.s001.t001'
p2982
(dp2983
g4
(lp2984
S'healthcare%1:04:01::'
p2985
asg7
I00
ssS'd010.s001.t003'
p2986
(dp2987
g4
(lp2988
S'challenger%1:18:00::'
p2989
asg7
I00
ssS'd010.s001.t002'
p2990
(dp2991
g4
(lp2992
S'law%1:10:00::'
p2993
asg7
I00
ssS'd010.s001.t005'
p2994
(dp2995
g4
(lp2996
S'case%1:04:00::'
p2997
asg7
I00
ssS'd010.s001.t004'
p2998
(dp2999
g4
(lp3000
S'court%1:14:00::'
p3001
asg7
I00
ssS'd007.s015.t001'
p3002
(dp3003
g4
(lp3004
S'sanction%1:04:02::'
p3005
asg7
I00
ssS'd003.s011.t001'
p3006
(dp3007
g4
(lp3008
S'technology%1:09:00::'
p3009
asg7
I00
ssS'd003.s011.t002'
p3010
(dp3011
g4
(lp3012
S'security%1:21:04::'
p3013
asg7
I00
ssS'd003.s011.t003'
p3014
(dp3015
g4
(lp3016
S'ground%1:24:00::'
p3017
asg7
I00
ssS'd011.s012.t004'
p3018
(dp3019
g4
(lp3020
S'match%1:11:00::'
p3021
asg7
I00
ssS'd004.s009.t008'
p3022
(dp3023
g4
(lp3024
S'editor%1:18:00::'
p3025
asg7
I00
ssS'd004.s009.t009'
p3026
(dp3027
g4
(lp3028
S'news%1:10:01::'
p3029
asg7
I00
ssS'd011.s012.t002'
p3030
(dp3031
g4
(lp3032
S'player%1:18:01::'
p3033
asg7
I00
ssS'd004.s009.t002'
p3034
(dp3035
g4
(lp3036
S'door%1:07:00::'
p3037
asg7
I00
ssS'd004.s009.t003'
p3038
(dp3039
g4
(lp3040
S'year%1:28:01::'
p3041
asg7
I00
ssS'd004.s009.t001'
p3042
(dp3043
g4
(lp3044
S'iraq%1:15:00::'
p3045
asg7
I00
ssS'd004.s009.t006'
p3046
(dp3047
g4
(lp3048
S'company%1:14:01::'
p3049
asg7
I00
ssS'd004.s009.t007'
p3050
(dp3051
g4
(lp3052
S'way%1:04:00::'
p3053
asg7
I00
ssS'd004.s009.t004'
p3054
(dp3055
g4
(lp3056
S'war%1:04:00::'
p3057
asg7
I00
ssS'd004.s009.t005'
p3058
(dp3059
g4
(lp3060
S'u.s.%1:15:00::'
p3061
asg7
I00
ssS'd003.s001.t003'
p3062
(dp3063
g4
(lp3064
S'dollar%1:23:00::'
p3065
asg7
I00
ssS'd003.s001.t002'
p3066
(dp3067
g4
(lp3068
S'momentum%1:07:00::'
p3069
asg7
I00
ssS'd010.s021.t003'
p3070
(dp3071
g4
(lp3072
S'business%1:09:01::'
p3073
asg7
I00
ssS'd010.s021.t002'
p3074
(dp3075
g4
(lp3076
S'critic%1:18:02::'
p3077
asg7
I00
ssS'd010.s021.t001'
p3078
(dp3079
g4
(lp3080
S'regard%1:09:01::'
p3081
asg7
I00
ssS'd006.s026.t001'
p3082
(dp3083
g4
(lp3084
S'crush%1:04:00::'
p3085
asg7
I00
ssS'd006.s026.t007'
p3086
(dp3087
g4
(lp3088
S'lawyer%1:18:00::'
p3089
asg7
I00
ssS'd006.s026.t006'
p3090
(dp3091
g4
(lp3092
S'courthouse%1:06:00::'
p3093
asg7
I00
ssS'd006.s026.t005'
p3094
(dp3095
g4
(lp3096
S'reporter%1:18:00::'
p3097
asg7
I00
ssS'd006.s026.t004'
p3098
(dp3099
g4
(lp3100
S'camera%1:06:00::'
p3101
asg7
I00
ssS'd010.s015.t001'
p3102
(dp3103
g4
(lp3104
S'fact%1:09:01::'
p3105
asg7
I00
ssS'd010.s015.t002'
p3106
(dp3107
g4
(lp3108
S'justice%1:18:00::'
p3109
asg7
I00
ssS'd010.s015.t004'
p3110
(dp3111
g4
(lp3112
S'action%1:04:02::'
p3113
asg7
I00
ssS'd010.s015.t005'
p3114
(dp3115
g4
(lp3116
S'justice%1:18:00::'
p3117
asg7
I00
ssS'd008.s009.t003'
p3118
(dp3119
g4
(lp3120
S'report%1:10:03::'
p3121
asg7
I00
ssS'd003.s008.t004'
p3122
(dp3123
g4
(lp3124
S'november%1:28:00::'
p3125
asg7
I00
ssS'd006.s013.t009'
p3126
(dp3127
g4
(lp3128
S'decision%1:09:00::'
p3129
asg7
I00
ssS'd006.s013.t008'
p3130
(dp3131
g4
(lp3132
S'wife%1:18:00::'
p3133
asg7
I00
ssS'd006.s013.t003'
p3134
(dp3135
g4
(lp3136
S'conviction%1:04:00::'
p3137
asg7
I00
ssS'd006.s013.t001'
p3138
(dp3139
g4
(lp3140
S'ruling%1:04:00::'
p3141
asg7
I00
ssS'd006.s013.t007'
p3142
(dp3143
g4
(lp3144
S'murder%1:04:00::'
p3145
asg7
I00
ssS'd006.s013.t005'
p3146
(dp3147
g4
(lp3148
S'osteopath%1:18:00::'
p3149
asg7
I00
ssS'd006.s013.t004'
p3150
(dp3151
g4
(lp3152
S'cleveland%1:15:00::'
p3153
asg7
I00
ssS'd007.s005.t010'
p3154
(dp3155
g4
(lp3156
S'phase%1:28:00::'
p3157
asg7
I00
ssS'd011.s020.t001'
p3158
(dp3159
g4
(lp3160
S'side%1:14:00::'
p3161
asg7
I00
ssS'd011.s020.t002'
p3162
(dp3163
g4
(lp3164
S'presence%1:04:00::'
p3165
asg7
I00
ssS'd005.s011.t008'
p3166
(dp3167
g4
(lp3168
S'circle%1:14:00::'
p3169
asg7
I00
ssS'd008.s016.t004'
p3170
(dp3171
g4
(lp3172
S'biochemistry%1:09:00::'
p3173
asg7
I00
ssS'd005.s011.t007'
p3174
(dp3175
g4
(lp3176
S'reference%1:10:03::'
p3177
asg7
I00
ssS'd005.s011.t004'
p3178
(dp3179
g4
(lp3180
S'capital%1:21:01::'
p3181
asg7
I00
ssS'd005.s011.t005'
p3182
(dp3183
g4
(lp3184
S'increase%1:07:00::'
p3185
asg7
I00
ssS'd005.s011.t002'
p3186
(dp3187
g4
(lp3188
S'us%1:15:00::'
p3189
asg7
I00
ssS'd005.s011.t003'
p3190
(dp3191
g4
(lp3192
S'bank%1:14:00::'
p3193
asg7
I00
ssS'd005.s011.t001'
p3194
(dp3195
g4
(lp3196
S'thursday%1:28:00::'
p3197
asg7
I00
ssS'd008.s024.t007'
p3198
(dp3199
g4
(lp3200
S'earth%1:17:00::'
p3201
asg7
I00
ssS'd008.s024.t006'
p3202
(dp3203
g4
(lp3204
S'arsenic%1:27:00::'
p3205
asg7
I00
ssS'd008.s024.t004'
p3206
(dp3207
g4
(lp3208
S'possibility%1:26:00::'
p3209
asg7
I00
ssS'd008.s024.t003'
p3210
(dp3211
g4
(lp3212
S'arsenic%1:27:00::'
p3213
asg7
I00
ssS'd008.s024.t002'
p3214
(dp3215
g4
(lp3216
S'phosphorus%1:27:00::'
p3217
asg7
I00
ssS'd008.s024.t001'
p3218
(dp3219
g4
(lp3220
S'microbe%1:05:00::'
p3221
asg7
I00
ssS'd008.s024.t009'
p3222
(dp3223
g4
(lp3224
S'moon%1:17:00::'
p3225
asg7
I00
ssS'd008.s024.t008'
p3226
(dp3227
g4
(lp3228
S'planet%1:17:01::'
p3229
aS'planet%1:17:00::'
p3230
asg7
I00
ssS'd013.s003.t012'
p3231
(dp3232
g4
(lp3233
S'bankruptcy%1:26:00::'
p3234
asg7
I00
ssS'd013.s003.t011'
p3235
(dp3236
g4
(lp3237
S'dispute%1:10:00::'
p3238
asg7
I00
ssS'd013.s003.t010'
p3239
(dp3240
g4
(lp3241
S'euro%1:23:00::'
p3242
asg7
I00
ssS'd013.s008.t001'
p3243
(dp3244
g4
(lp3245
S'bank%1:14:00::'
p3246
asg7
I00
ssS'd006.s025.t002'
p3247
(dp3248
g4
(lp3249
S'emotion%1:12:00::'
p3250
asg7
I00
ssS'd006.s025.t003'
p3251
(dp3252
g4
(lp3253
S'case%1:04:00::'
p3254
asg7
I00
ssS'd013.s012.t003'
p3255
(dp3256
g4
(lp3257
S'loss%1:21:01::'
p3258
asg7
I00
ssS'd005.s005.t008'
p3259
(dp3260
g4
(lp3261
S'charge%1:21:02::'
p3262
asg7
I00
ssS'd005.s005.t007'
p3263
(dp3264
g4
(lp3265
S'bonus%1:21:00::'
p3266
asg7
I00
ssS'd005.s005.t006'
p3267
(dp3268
g4
(lp3269
S'manager%1:18:00::'
p3270
asg7
I00
ssS'd005.s005.t005'
p3271
(dp3272
g4
(lp3273
S'limit%1:23:00::'
p3274
asg7
I00
ssS'd005.s005.t004'
p3275
(dp3276
g4
(lp3277
S'money%1:21:00::'
p3278
asg7
I00
ssS'd005.s005.t003'
p3279
(dp3280
g4
(lp3281
S'acceptance%1:04:00::'
p3282
asg7
I00
ssS'd005.s005.t002'
p3283
(dp3284
g4
(lp3285
S'restriction%1:09:00::'
p3286
asg7
I00
ssS'd005.s005.t001'
p3287
(dp3288
g4
(lp3289
S'institution%1:14:00::'
p3290
asg7
I00
ssS'd013.s008.t003'
p3291
(dp3292
g4
(lp3293
S'settlement%1:10:00::'
p3294
asg7
I00
ssS'd004.s012.t002'
p3295
(dp3296
g4
(lp3297
S'firm%1:14:00::'
p3298
asg7
I00
ssS'd004.s012.t003'
p3299
(dp3300
g4
(lp3301
S'case%1:11:00::'
p3302
asg7
I00
ssS'd006.s010.t004'
p3303
(dp3304
g4
(lp3305
S'claim%1:10:02::'
p3306
asg7
I00
ssS'd006.s010.t005'
p3307
(dp3308
g4
(lp3309
S'ruling%1:04:00::'
p3310
asg7
I00
ssS'd006.s010.t002'
p3311
(dp3312
g4
(lp3313
S'state%1:15:01::'
p3314
asg7
I00
ssS'd004.s012.t007'
p3315
(dp3316
g4
(lp3317
S'energy%1:19:01::'
p3318
asg7
I00
ssS'd004.s012.t004'
p3319
(dp3320
g4
(lp3321
S'disadvantage%1:07:00::'
p3322
asg7
I00
ssS'd004.s012.t005'
p3323
(dp3324
g4
(lp3325
S'rival%1:18:00::'
p3326
asg7
I00
ssS'd004.s012.t008'
p3327
(dp3328
g4
(lp3329
S'firm%1:14:00::'
p3330
asg7
I00
ssS'd006.s010.t008'
p3331
(dp3332
g4
(lp3333
S'evidence%1:10:00::'
p3334
asg7
I00
ssS'd006.s010.t009'
p3335
(dp3336
g4
(lp3337
S'jury%1:14:00::'
p3338
asg7
I00
ssS'd011.s016.t001'
p3339
(dp3340
g4
(lp3341
S'side%1:14:00::'
p3342
asg7
I00
ssS'd011.s016.t004'
p3343
(dp3344
g4
(lp3345
S'match%1:11:00::'
p3346
asg7
I00
ssS'd011.s016.t005'
p3347
(dp3348
g4
(lp3349
S'striker%1:18:02::'
p3350
asg7
I00
ssS'd012.s009.t005'
p3351
(dp3352
g4
(lp3353
S'society%1:14:00::'
p3354
asg7
I00
ssS'd012.s009.t004'
p3355
(dp3356
g4
(lp3357
S'economy%1:14:00::'
p3358
asg7
I00
ssS'd012.s009.t003'
p3359
(dp3360
g4
(lp3361
S'burden%1:09:01::'
p3362
asg7
I00
ssS'd012.s009.t002'
p3363
(dp3364
g4
(lp3365
S'immigrant%1:18:00::'
p3366
asg7
I00
ssS'd012.s009.t001'
p3367
(dp3368
g4
(lp3369
S'side%1:14:00::'
p3370
asg7
I00
ssS'd009.s024.t008'
p3371
(dp3372
g4
(lp3373
S'figure%1:07:01::'
p3374
asg7
I00
ssS'd006.s022.t001'
p3375
(dp3376
g4
(lp3377
S'juror%1:18:00::'
p3378
asg7
I00
ssS'd009.s024.t002'
p3379
(dp3380
g4
(lp3381
S'relative%1:18:00::'
p3382
asg7
I00
ssS'd009.s024.t003'
p3383
(dp3384
g4
(lp3385
S'victim%1:18:00::'
p3386
asg7
I00
ssS'd009.s024.t007'
p3387
(dp3388
g4
(lp3389
S'year%1:28:01::'
p3390
asg7
I00
ssS'd009.s024.t004'
p3391
(dp3392
g4
(lp3393
S'crime%1:04:00::'
p3394
asg7
I00
ssS'd009.s024.t005'
p3395
(dp3396
g4
(lp3397
S'year%1:28:01::'
p3398
asg7
I00
ssS'd004.s009.t010'
p3399
(dp3400
g4
(lp3401
S'outlet%1:06:01::'
p3402
asg7
I00
ssS'd007.s026.t002'
p3403
(dp3404
g4
(lp3405
S'factor%1:11:00::'
p3406
asg7
I00
ssS'd007.s026.t003'
p3407
(dp3408
g4
(lp3409
S'expulsion%1:04:01::'
p3410
asg7
I00
ssS'd007.s026.t001'
p3411
(dp3412
g4
(lp3413
S'controversy%1:10:00::'
p3414
asg7
I00
ssS'd007.s026.t006'
p3415
(dp3416
g4
(lp3417
S'directive%1:10:00::'
p3418
asg7
I00
ssS'd007.s026.t004'
p3419
(dp3420
g4
(lp3421
S'way%1:07:01::'
p3422
asg7
I00
ssS'd007.s026.t005'
p3423
(dp3424
g4
(lp3425
S'transmission%1:04:01::'
p3426
asg7
I00
ssS'd001.s009.t009'
p3427
(dp3428
g4
(lp3429
S'percent%1:24:00::'
p3430
asg7
I00
ssS'd001.s009.t008'
p3431
(dp3432
g4
(lp3433
S'period%1:28:00::'
p3434
asg7
I00
ssS'd001.s009.t006'
p3435
(dp3436
g4
(lp3437
S'level%1:26:00::'
p3438
asg7
I00
ssS'd001.s009.t005'
p3439
(dp3440
g4
(lp3441
S'percent%1:24:00::'
p3442
asg7
I00
ssS'd001.s009.t004'
p3443
(dp3444
g4
(lp3445
S'emission%1:27:00::'
p3446
asg7
I00
ssS'd001.s009.t002'
p3447
(dp3448
g4
(lp3449
S'deal%1:10:00::'
p3450
asg7
I00
ssS'd001.s009.t001'
p3451
(dp3452
g4
(lp3453
S'outline%1:09:00::'
p3454
asg7
I00
ssS'd008.s015.t003'
p3455
(dp3456
g4
(lp3457
S'team%1:14:00::'
p3458
asg7
I00
ssS'd008.s015.t002'
p3459
(dp3460
g4
(lp3461
S'research%1:04:00::'
p3462
asg7
I00
ssS'd008.s015.t001'
p3463
(dp3464
g4
(lp3465
S'part%1:24:00::'
p3466
asg7
I00
ssS'd007.s005.t001'
p3467
(dp3468
g4
(lp3469
S'way%1:07:01::'
p3470
asg7
I00
ssS'd007.s005.t003'
p3471
(dp3472
g4
(lp3473
S'leader%1:18:00::'
p3474
asg7
I00
ssS'd007.s005.t005'
p3475
(dp3476
g4
(lp3477
S'player%1:18:01::'
p3478
asg7
I00
ssS'd007.s005.t004'
p3479
(dp3480
g4
(lp3481
S'group%1:03:00::'
p3482
asg7
I00
ssS'd007.s005.t007'
p3483
(dp3484
g4
(lp3485
S'game%1:04:03::'
p3486
asg7
I00
ssS'd007.s005.t006'
p3487
(dp3488
g4
(lp3489
S'sanction%1:04:02::'
p3490
asg7
I00
ssS'd007.s005.t009'
p3491
(dp3492
g4
(lp3493
S'card%1:27:00::'
p3494
asg7
I00
ssS'd007.s005.t008'
p3495
(dp3496
g4
(lp3497
S'league%1:14:01::'
p3498
asg7
I00
ssS'd006.s017.t007'
p3499
(dp3500
g4
(lp3501
S'trial%1:04:02::'
p3502
asg7
I00
ssS'd006.s017.t006'
p3503
(dp3504
g4
(lp3505
S'courtroom%1:06:00::'
p3506
asg7
I00
ssS'd006.s017.t005'
p3507
(dp3508
g4
(lp3509
S'communication%1:10:01::'
p3510
asg7
I00
ssS'd007.s012.t002'
p3511
(dp3512
g4
(lp3513
S'sport%1:04:00::'
p3514
asg7
I00
ssS'd006.s017.t003'
p3515
(dp3516
g4
(lp3517
S'judge%1:18:00::'
p3518
asg7
I00
ssS'd006.s017.t002'
p3519
(dp3520
g4
(lp3521
S'appeal%1:04:00::'
p3522
asg7
I00
ssS'd006.s017.t001'
p3523
(dp3524
g4
(lp3525
S'professor%1:18:00::'
p3526
asg7
I00
ssS'd007.s012.t006'
p3527
(dp3528
g4
(lp3529
S'aspect%1:07:02::'
p3530
asg7
I00
ssS'd007.s012.t009'
p3531
(dp3532
g4
(lp3533
S'game%1:04:03::'
p3534
asg7
I00
ssS'd007.s012.t008'
p3535
(dp3536
g4
(lp3537
S'danger%1:26:00::'
p3538
asg7
I00
ssS'd011.s009.t005'
p3539
(dp3540
g4
(lp3541
S'level%1:26:01::'
p3542
asg7
I00
ssS'd001.s022.t002'
p3543
(dp3544
g4
(lp3545
S'member%1:14:00::'
p3546
asg7
I00
ssS'd001.s022.t003'
p3547
(dp3548
g4
(lp3549
S'draft%1:10:00::'
p3550
asg7
I00
ssS'd001.s022.t004'
p3551
(dp3552
g4
(lp3553
S'treaty%1:10:00::'
p3554
asg7
I00
ssS'd001.s022.t005'
p3555
(dp3556
g4
(lp3557
S'proposal%1:10:00::'
p3558
asg7
I00
ssS'd001.s022.t006'
p3559
(dp3560
g4
(lp3561
S'friday%1:28:00::'
p3562
asg7
I00
ssS'd001.s022.t007'
p3563
(dp3564
g4
(lp3565
S'morning%1:28:00::'
p3566
asg7
I00
ssS'd012.s007.t001'
p3567
(dp3568
g4
(lp3569
S'difference%1:07:00::'
p3570
asg7
I00
ssS'd012.s007.t003'
p3571
(dp3572
g4
(lp3573
S'generosity%1:07:00::'
p3574
asg7
I00
ssS'd012.s007.t002'
p3575
(dp3576
g4
(lp3577
S'degree%1:07:00::'
p3578
asg7
I00
ssS'd006.s015.t012'
p3579
(dp3580
g4
(lp3581
S'case%1:04:00::'
p3582
asg7
I00
ssS'd006.s015.t010'
p3583
(dp3584
g4
(lp3585
S'time%1:11:00::'
p3586
asg7
I00
ssS'd004.s012.t011'
p3587
(dp3588
g4
(lp3589
S'shareholder%1:18:00::'
p3590
asg7
I00
ssS'd004.s012.t010'
p3591
(dp3592
g4
(lp3593
S'risk%1:26:00::'
p3594
asg7
I00
ssS'd012.s002.t001'
p3595
(dp3596
g4
(lp3597
S'immigration%1:04:00::'
p3598
asg7
I00
ssS'd006.s010.t010'
p3599
(dp3600
g4
(lp3601
S'passion%1:12:00::'
p3602
asg7
I00
ssS'd006.s008.t003'
p3603
(dp3604
g4
(lp3605
S'judge%1:18:00::'
p3606
asg7
I00
ssS'd012.s002.t007'
p3607
(dp3608
g4
(lp3609
S'service%1:04:08::'
p3610
asg7
I00
ssS'd012.s014.t001'
p3611
(dp3612
g4
(lp3613
S'immigration%1:04:00::'
p3614
asg7
I00
ssS'd007.s012.t001'
p3615
(dp3616
g4
(lp3617
S'advantage%1:07:01::'
p3618
asg7
I00
ssS'd012.s014.t003'
p3619
(dp3620
g4
(lp3621
S'employment%1:26:00::'
p3622
asg7
I00
ssS'd012.s014.t002'
p3623
(dp3624
g4
(lp3625
S'growth%1:22:02::'
p3626
asg7
I00
ssS'd006.s008.t001'
p3627
(dp3628
g4
(lp3629
S'claim%1:10:02::'
p3630
asg7
I00
ssS'd013.s020.t002'
p3631
(dp3632
g4
(lp3633
S'regulator%1:18:00::'
p3634
asg7
I00
ssS'd009.s006.t004'
p3635
(dp3636
g4
(lp3637
S'region%1:15:01::'
p3638
asg7
I00
ssS'd007.s012.t003'
p3639
(dp3640
g4
(lp3641
S'spirit%1:26:00::'
p3642
asg7
I00
ssS'd006.s017.t004'
p3643
(dp3644
g4
(lp3645
S'idea%1:09:00::'
p3646
asg7
I00
ssS'd007.s012.t005'
p3647
(dp3648
g4
(lp3649
S'player%1:18:01::'
p3650
asg7
I00
ssS'd007.s012.t004'
p3651
(dp3652
g4
(lp3653
S'integrity%1:07:00::'
p3654
asg7
I00
ssS'd007.s012.t007'
p3655
(dp3656
g4
(lp3657
S'action%1:04:02::'
p3658
asg7
I00
ssS'd008.s012.t008'
p3659
(dp3660
g4
(lp3661
S'discovery%1:04:00::'
p3662
asg7
I00
ssS'd008.s012.t006'
p3663
(dp3664
g4
(lp3665
S'internet%1:06:00::'
p3666
asg7
I00
ssS'd008.s012.t007'
p3667
(dp3668
g4
(lp3669
S'report%1:10:03::'
p3670
asg7
I00
ssS'd008.s012.t004'
p3671
(dp3672
g4
(lp3673
S'find%1:09:00::'
p3674
asg7
I00
ssS'd008.s012.t005'
p3675
(dp3676
g4
(lp3677
S'speculation%1:09:00::'
p3678
asg7
I00
ssS'd008.s012.t003'
p3679
(dp3680
g4
(lp3681
S'detail%1:09:00::'
p3682
asg7
I00
ssS'd008.s012.t001'
p3683
(dp3684
g4
(lp3685
S'announcement%1:10:01::'
p3686
asg7
I00
ssS'd013.s014.t001'
p3687
(dp3688
g4
(lp3689
S'regulator%1:18:00::'
p3690
asg7
I00
ssS'd010.s017.t006'
p3691
(dp3692
g4
(lp3693
S'activist%1:18:00::'
p3694
asg7
I00
ssS'd010.s017.t004'
p3695
(dp3696
g4
(lp3697
S'company%1:14:01::'
p3698
asg7
I00
ssS'd010.s017.t005'
p3699
(dp3700
g4
(lp3701
S'interest%1:09:00::'
p3702
asg7
I00
ssS'd010.s017.t003'
p3703
(dp3704
g4
(lp3705
S'case%1:04:00::'
p3706
asg7
I00
ssS'd010.s017.t001'
p3707
(dp3708
g4
(lp3709
S'proximity%1:07:00::'
p3710
asg7
I00
ssS'd010.s023.t004'
p3711
(dp3712
g4
(lp3713
S'issue%1:09:01::'
p3714
asg7
I00
ssS'd010.s023.t001'
p3715
(dp3716
g4
(lp3717
S'conservative%1:18:01::'
p3718
asg7
I00
ssS'd010.s023.t002'
p3719
(dp3720
g4
(lp3721
S'justice%1:18:00::'
p3722
asg7
I00
ssS'd001.s007.t001'
p3723
(dp3724
g4
(lp3725
S'lot%1:23:00::'
p3726
asg7
I00
ssS'd001.s007.t003'
p3727
(dp3728
g4
(lp3729
S'process%1:04:00::'
p3730
asg7
I00
ssS'd001.s007.t002'
p3731
(dp3732
g4
(lp3733
S'flexibility%1:07:01::'
p3734
asg7
I00
ssS'd001.s007.t005'
p3735
(dp3736
g4
(lp3737
S'representative%1:18:02::'
p3738
asg7
I00
ssS'd001.s007.t004'
p3739
(dp3740
g4
(lp3741
S'washington%1:14:00::'
p3742
asg7
I00
ssS'd003.s007.t010'
p3743
(dp3744
g4
(lp3745
S'analyst%1:18:02::'
p3746
asg7
I00
ssS'd010.s004.t002'
p3747
(dp3748
g4
(lp3749
S'issue%1:09:00::'
p3750
asg7
I00
ssS'd010.s004.t003'
p3751
(dp3752
g4
(lp3753
S'suit%1:04:00::'
p3754
asg7
I00
ssS'd010.s004.t001'
p3755
(dp3756
g4
(lp3757
S'case%1:04:00::'
p3758
asg7
I00
ssS'd010.s004.t006'
p3759
(dp3760
g4
(lp3761
S'overhaul%1:04:01::'
p3762
asg7
I00
ssS'd010.s004.t007'
p3763
(dp3764
g4
(lp3765
S'congress%1:14:01::'
p3766
asg7
I00
ssS'd011.s006.t003'
p3767
(dp3768
g4
(lp3769
S'game%1:04:03::'
p3770
asg7
I00
ssS'd011.s006.t002'
p3771
(dp3772
g4
(lp3773
S'friday%1:28:00::'
p3774
asg7
I00
ssS'd004.s015.t003'
p3775
(dp3776
g4
(lp3777
S'contract%1:10:00::'
p3778
asg7
I00
ssS'd010.s004.t008'
p3779
(dp3780
g4
(lp3781
S'year%1:28:01::'
p3782
asg7
I00
ssS'd010.s004.t009'
p3783
(dp3784
g4
(lp3785
S'law%1:10:00::'
p3786
asg7
I00
ssS'd004.s015.t004'
p3787
(dp3788
g4
(lp3789
S'weekend%1:28:00::'
p3790
asg7
I00
ssS'd010.s003.t003'
p3791
(dp3792
g4
(lp3793
S'justice%1:18:00::'
p3794
asg7
I00
ssS'd010.s003.t002'
p3795
(dp3796
g4
(lp3797
S'thursday%1:28:00::'
p3798
asg7
I00
ssS'd010.s003.t001'
p3799
(dp3800
g4
(lp3801
S'occasion%1:11:01::'
p3802
asg7
I00
ssS'd010.s003.t006'
p3803
(dp3804
g4
(lp3805
S'review%1:04:02::'
p3806
asg7
I00
ssS'd010.s003.t005'
p3807
(dp3808
g4
(lp3809
S'petition%1:10:00::'
p3810
asg7
I00
ssS'd010.s003.t004'
p3811
(dp3812
g4
(lp3813
S'conference%1:10:00::'
p3814
asg7
I00
ssS'd003.s003.t006'
p3815
(dp3816
g4
(lp3817
S'nasdaq%1:06:00::'
p3818
asg7
I00
ssS'd004.s011.t010'
p3819
(dp3820
g4
(lp3821
S'world%1:17:00::'
p3822
asg7
I00
ssS'd004.s011.t011'
p3823
(dp3824
g4
(lp3825
S'reserve%1:21:00::'
p3826
asg7
I00
ssS'd004.s011.t012'
p3827
(dp3828
g4
(lp3829
S'analyst%1:18:00::'
p3830
asg7
I00
ssS'd002.s011.t004'
p3831
(dp3832
g4
(lp3833
S'light%1:09:02::'
p3834
asg7
I00
ssS'd002.s011.t001'
p3835
(dp3836
g4
(lp3837
S'role%1:04:00::'
p3838
asg7
I00
ssS'd006.s028.t010'
p3839
(dp3840
g4
(lp3841
S'trial%1:04:02::'
p3842
asg7
I00
ssS'd002.s011.t003'
p3843
(dp3844
g4
(lp3845
S'return%1:04:02::'
p3846
asg7
I00
ssS'd011.s002.t001'
p3847
(dp3848
g4
(lp3849
S'player%1:18:01::'
p3850
asg7
I00
ssS'd011.s002.t003'
p3851
(dp3852
g4
(lp3853
S'game%1:04:03::'
p3854
asg7
I00
ssS'd011.s002.t002'
p3855
(dp3856
g4
(lp3857
S'spain%1:15:00::'
p3858
asg7
I00
ssS'd002.s006.t005'
p3859
(dp3860
g4
(lp3861
S'wrist%1:08:00::'
p3862
asg7
I00
ssS'd003.s004.t003'
p3863
(dp3864
g4
(lp3865
S'point%1:26:00::'
p3866
asg7
I00
ssS'd002.s006.t001'
p3867
(dp3868
g4
(lp3869
S'basket%1:04:00::'
p3870
asg7
I00
ssS'd002.s006.t003'
p3871
(dp3872
g4
(lp3873
S'speculation%1:10:03::'
p3874
asg7
I00
ssS'd002.s006.t002'
p3875
(dp3876
g4
(lp3877
S'perimeter%1:25:00::'
p3878
asg7
I00
ssS'd004.s016.t006'
p3879
(dp3880
g4
(lp3881
S'contract%1:10:00::'
p3882
asg7
I00
ssS'd011.s005.t005'
p3883
(dp3884
g4
(lp3885
S'top%1:26:00::'
p3886
asg7
I00
ssS'd004.s016.t004'
p3887
(dp3888
g4
(lp3889
S'company%1:14:01::'
p3890
asg7
I00
ssS'd004.s016.t005'
p3891
(dp3892
g4
(lp3893
S'stake%1:21:02::'
p3894
asg7
I00
ssS'd004.s016.t002'
p3895
(dp3896
g4
(lp3897
S'bid%1:10:00::'
p3898
asg7
I00
ssS'd004.s016.t003'
p3899
(dp3900
g4
(lp3901
S'contract%1:10:00::'
p3902
asg7
I00
ssS'd011.s005.t008'
p3903
(dp3904
g4
(lp3905
S'selection%1:04:00::'
p3906
asg7
I00
ssS'd009.s005.t003'
p3907
(dp3908
g4
(lp3909
S'poll%1:09:00::'
p3910
asg7
I00
ssS'd009.s005.t001'
p3911
(dp3912
g4
(lp3913
S'finding%1:17:00::'
p3914
asg7
I00
ssS'd009.s005.t004'
p3915
(dp3916
g4
(lp3917
S'country%1:14:00::'
p3918
asg7
I00
ssS'd006.s020.t005'
p3919
(dp3920
g4
(lp3921
S'daughter%1:18:00::'
p3922
asg7
I00
ssS'd002.s015.t003'
p3923
(dp3924
g4
(lp3925
S'line%1:15:01::'
p3926
asg7
I00
ssS'd002.s015.t002'
p3927
(dp3928
g4
(lp3929
S'team%1:14:00::'
p3930
asg7
I00
ssS'd006.s020.t001'
p3931
(dp3932
g4
(lp3933
S'juror%1:18:00::'
p3934
asg7
I00
ssS'd006.s020.t003'
p3935
(dp3936
g4
(lp3937
S'victim%1:18:00::'
p3938
asg7
I00
ssS'd006.s020.t002'
p3939
(dp3940
g4
(lp3941
S'photograph%1:06:00::'
p3942
asg7
I00
ssS'd006.s028.t005'
p3943
(dp3944
g4
(lp3945
S'report%1:10:00::'
p3946
asg7
I00
ssS'd006.s028.t004'
p3947
(dp3948
g4
(lp3949
S'news%1:10:01::'
p3950
asg7
I00
ssS'd006.s028.t007'
p3951
(dp3952
g4
(lp3953
S'court%1:14:00::'
p3954
asg7
I00
ssS'd006.s028.t006'
p3955
(dp3956
g4
(lp3957
S'view%1:09:02::'
p3958
asg7
I00
ssS'd006.s028.t001'
p3959
(dp3960
g4
(lp3961
S'interview%1:10:01::'
p3962
asg7
I00
ssS'd006.s028.t003'
p3963
(dp3964
g4
(lp3965
S'claim%1:10:02::'
p3966
asg7
I00
ssS'd006.s028.t002'
p3967
(dp3968
g4
(lp3969
S'journalist%1:18:00::'
p3970
asg7
I00
ssS'd006.s028.t009'
p3971
(dp3972
g4
(lp3973
S'coverage%1:10:00::'
p3974
asg7
I00
ssS'd006.s028.t008'
p3975
(dp3976
g4
(lp3977
S'policy%1:10:00::'
p3978
asg7
I00
ssS'd010.s007.t005'
p3979
(dp3980
g4
(lp3981
S'dinner%1:14:00::'
p3982
asg7
I00
ssS'd010.s007.t004'
p3983
(dp3984
g4
(lp3985
S'firm%1:14:00::'
p3986
asg7
I00
ssS'd006.s015.t009'
p3987
(dp3988
g4
(lp3989
S'courtroom%1:06:00::'
p3990
asg7
I00
ssS'd006.s015.t008'
p3991
(dp3992
g4
(lp3993
S'way%1:07:01::'
p3994
asg7
I00
ssS'd006.s015.t005'
p3995
(dp3996
g4
(lp3997
S'century%1:28:00::'
p3998
asg7
I00
ssS'd006.s015.t004'
p3999
(dp4000
g4
(lp4001
S'half%1:23:00::'
p4002
asg7
I00
ssS'd006.s015.t007'
p4003
(dp4004
g4
(lp4005
S'rule%1:10:00::'
p4006
asg7
I00
ssS'd006.s015.t006'
p4007
(dp4008
g4
(lp4009
S'argument%1:10:02::'
p4010
asg7
I00
ssS'd006.s015.t001'
p4011
(dp4012
g4
(lp4013
S'lawyer%1:18:00::'
p4014
asg7
I00
ssS'd006.s015.t003'
p4015
(dp4016
g4
(lp4017
S'conviction%1:04:00::'
p4018
asg7
I00
ssS'd008.s023.t004'
p4019
(dp4020
g4
(lp4021
S'concentration%1:07:02::'
p4022
asg7
I00
ssS'd008.s023.t005'
p4023
(dp4024
g4
(lp4025
S'arsenic%1:27:00::'
p4026
asg7
I00
ssS'd008.s023.t002'
p4027
(dp4028
g4
(lp4029
S'bacterium%1:05:00::'
p4030
asg7
I00
ssS'd008.s023.t001'
p4031
(dp4032
g4
(lp4033
S'researcher%1:18:00::'
p4034
asg7
I00
ssS'd002.s012.t001'
p4035
(dp4036
g4
(lp4037
S'disadvantage%1:07:00::'
p4038
asg7
I00
ssS'd006.s030.t001'
p4039
(dp4040
g4
(lp4041
S'lawyer%1:18:00::'
p4042
asg7
I00
ssS'd006.s030.t002'
p4043
(dp4044
g4
(lp4045
S'claim%1:10:02::'
p4046
asg7
I00
ssS'd002.s005.t004'
p4047
(dp4048
g4
(lp4049
S'start%1:11:00::'
p4050
asg7
I00
ssS'd002.s005.t001'
p4051
(dp4052
g4
(lp4053
S'game%1:04:03::'
p4054
asg7
I00
ssS'd002.s005.t002'
p4055
(dp4056
g4
(lp4057
S'favor%1:07:00::'
p4058
asg7
I00
ssS'd002.s005.t003'
p4059
(dp4060
g4
(lp4061
S'scoreboard%1:06:00::'
p4062
asg7
I00
ssS'd009.s029.t010'
p4063
(dp4064
g4
(lp4065
S'nicaragua%1:15:00::'
p4066
asg7
I00
ssS'd008.s020.t003'
p4067
(dp4068
g4
(lp4069
S'behavior%1:26:00::'
p4070
asg7
I00
ssS'd008.s020.t002'
p4071
(dp4072
g4
(lp4073
S'chemical%1:27:00::'
p4074
asg7
I00
ssS'd008.s020.t001'
p4075
(dp4076
g4
(lp4077
S'arsenic%1:27:00::'
p4078
asg7
I00
ssS'd008.s020.t004'
p4079
(dp4080
g4
(lp4081
S'phosphorus%1:27:00::'
p4082
asg7
I00
ssS'd003.s007.t007'
p4083
(dp4084
g4
(lp4085
S'robustness%1:07:00::'
p4086
asg7
I00
ssS'd003.s007.t006'
p4087
(dp4088
g4
(lp4089
S'relation%1:03:00::'
p4090
asg7
I00
ssS'd003.s007.t005'
p4091
(dp4092
g4
(lp4093
S'opinion%1:09:00::'
p4094
asg7
I00
ssS'd003.s007.t004'
p4095
(dp4096
g4
(lp4097
S'market%1:14:01::'
p4098
asg7
I00
ssS'd003.s007.t003'
p4099
(dp4100
g4
(lp4101
S'indicator%1:10:00::'
p4102
asg7
I00
ssS'd003.s007.t002'
p4103
(dp4104
g4
(lp4105
S'publication%1:04:02::'
p4106
asg7
I00
ssS'd003.s007.t001'
p4107
(dp4108
g4
(lp4109
S'trend%1:15:02::'
p4110
asg7
I00
ssS'd003.s007.t008'
p4111
(dp4112
g4
(lp4113
S'recovery%1:11:00::'
p4114
asg7
I00
ssS'd013.s011.t005'
p4115
(dp4116
g4
(lp4117
S'bankruptcy%1:26:00::'
p4118
asg7
I00
ssS'd012.s021.t003'
p4119
(dp4120
g4
(lp4121
S'immigrant%1:18:00::'
p4122
asg7
I00
ssS'd004.s001.t002'
p4123
(dp4124
g4
(lp4125
S'deal%1:10:00::'
p4126
asg7
I00
ssS'd012.s021.t002'
p4127
(dp4128
g4
(lp4129
S'diversity%1:07:02::'
p4130
asg7
I00
ssS'd010.s004.t011'
p4131
(dp4132
g4
(lp4133
S'activist%1:18:00::'
p4134
asg7
I00
ssS'd012.s021.t011'
p4135
(dp4136
g4
(lp4137
S'winner%1:18:00::'
p4138
asg7
I00
ssS'd012.s021.t016'
p4139
(dp4140
g4
(lp4141
S'yahoo%1:10:00::'
p4142
asg7
I00
ssS'd012.s021.t017'
p4143
(dp4144
g4
(lp4145
S'immigrant%1:18:00::'
p4146
asg7
I00
ssS'd004.s018.t004'
p4147
(dp4148
g4
(lp4149
S'commitment%1:04:02::'
p4150
asg7
I00
ssS'd004.s018.t005'
p4151
(dp4152
g4
(lp4153
S'iraq%1:15:00::'
p4154
asg7
I00
ssS'd004.s018.t001'
p4155
(dp4156
g4
(lp4157
S'company%1:14:01::'
p4158
asg7
I00
ssS'd004.s018.t002'
p4159
(dp4160
g4
(lp4161
S'par%1:26:00::'
p4162
asg7
I00
ssS'd004.s018.t003'
p4163
(dp4164
g4
(lp4165
S'competitor%1:18:00::'
p4166
asg7
I00
ssS'd011.s001.t001'
p4167
(dp4168
g4
(lp4169
S'familiarity%1:09:00::'
p4170
asg7
I00
ssS'd013.s003.t009'
p4171
(dp4172
g4
(lp4173
S'dollar%1:23:00::'
p4174
asg7
I00
ssS'd004.s011.t007'
p4175
(dp4176
g4
(lp4177
S'military%1:14:00::'
p4178
asg7
I00
ssS'd004.s011.t006'
p4179
(dp4180
g4
(lp4181
S'u.s.%1:15:00::'
p4182
asg7
I00
ssS'd004.s011.t005'
p4183
(dp4184
g4
(lp4185
S'instability%1:07:00::'
p4186
asg7
I00
ssS'd004.s011.t004'
p4187
(dp4188
g4
(lp4189
S'tuesday%1:28:00::'
p4190
asg7
I00
ssS'd004.s011.t003'
p4191
(dp4192
g4
(lp4193
S'bombing%1:04:01::'
p4194
asg7
I00
ssS'd004.s011.t002'
p4195
(dp4196
g4
(lp4197
S'security%1:26:00::'
p4198
aS'security%1:04:00::'
p4199
asg7
I00
ssS'd004.s011.t001'
p4200
(dp4201
g4
(lp4202
S'concern%1:09:00::'
p4203
asg7
I00
ssS'd004.s011.t009'
p4204
(dp4205
g4
(lp4206
S'iraq%1:15:00::'
p4207
asg7
I00
ssS'd002.s016.t001'
p4208
(dp4209
g4
(lp4210
S'spite%1:12:00::'
p4211
asg7
I00
ssS'd002.s016.t002'
p4212
(dp4213
g4
(lp4214
S'team%1:14:00::'
p4215
asg7
I00
ssS'd002.s016.t004'
p4216
(dp4217
g4
(lp4218
S'game%1:04:03::'
p4219
asg7
I00
ssS'd002.s016.t005'
p4220
(dp4221
g4
(lp4222
S'victory%1:11:00::'
p4223
asg7
I00
ssS'd002.s016.t006'
p4224
(dp4225
g4
(lp4226
S'time%1:11:00::'
p4227
asg7
I00
ssS'd002.s016.t007'
p4228
(dp4229
g4
(lp4230
S'season%1:28:02::'
p4231
asg7
I00
ssS'd010.s005.t010'
p4232
(dp4233
g4
(lp4234
S'court%1:14:00::'
p4235
asg7
I00
ssS'd010.s005.t011'
p4236
(dp4237
g4
(lp4238
S'decision%1:09:00::'
p4239
asg7
I00
ssS'd006.s003.t003'
p4240
(dp4241
g4
(lp4242
S'report%1:10:00::'
p4243
asg7
I00
ssS'd006.s003.t004'
p4244
(dp4245
g4
(lp4246
S'testimony%1:10:00::'
p4247
asg7
I00
ssS'd002.s001.t001'
p4248
(dp4249
g4
(lp4250
S'victory%1:11:00::'
p4251
asg7
I00
ssS'd002.s001.t002'
p4252
(dp4253
g4
(lp4254
S'israel%1:15:00::'
p4255
asg7
I00
ssS'd011.s005.t011'
p4256
(dp4257
g4
(lp4258
S'game%1:04:03::'
p4259
asg7
I00
ssS'd011.s004.t003'
p4260
(dp4261
g4
(lp4262
S'player%1:18:01::'
p4263
asg7
I00
ssS'd002.s009.t001'
p4264
(dp4265
g4
(lp4266
S'team%1:14:00::'
p4267
asg7
I00
ssS'd002.s009.t002'
p4268
(dp4269
g4
(lp4270
S'point%1:23:01::'
p4271
asg7
I00
ssS'd001.s018.t006'
p4272
(dp4273
g4
(lp4274
S'obligation%1:04:00::'
p4275
asg7
I00
ssS'd002.s009.t004'
p4276
(dp4277
g4
(lp4278
S'night%1:28:00::'
p4279
asg7
I00
ssS'd008.s006.t009'
p4280
(dp4281
g4
(lp4282
S'journal%1:10:00::'
p4283
asg7
I00
ssS'd008.s006.t008'
p4284
(dp4285
g4
(lp4286
S'edition%1:10:02::'
p4287
asg7
I00
ssS'd008.s006.t007'
p4288
(dp4289
g4
(lp4290
S'thursday%1:28:00::'
p4291
asg7
I00
ssS'd008.s006.t006'
p4292
(dp4293
g4
(lp4294
S'report%1:10:03::'
p4295
asg7
I00
ssS'd008.s006.t002'
p4296
(dp4297
g4
(lp4298
S'life%1:19:00::'
p4299
asg7
I00
ssS'd008.s006.t001'
p4300
(dp4301
g4
(lp4302
S'form%1:09:01::'
p4303
asg7
I00
ssS'd013.s023.t006'
p4304
(dp4305
g4
(lp4306
S'dollar%1:23:00::'
p4307
asg7
I00
ssS'd007.s008.t002'
p4308
(dp4309
g4
(lp4310
S'rule%1:09:00::'
p4311
asg7
I00
ssS'd007.s008.t003'
p4312
(dp4313
g4
(lp4314
S'sport%1:04:00::'
p4315
asg7
I00
ssS'd007.s008.t001'
p4316
(dp4317
g4
(lp4318
S'ethos%1:07:00::'
p4319
asg7
I00
ssS'd010.s026.t001'
p4320
(dp4321
g4
(lp4322
S'indication%1:10:00::'
p4323
asg7
I00
ssS'd003.s003.t010'
p4324
(dp4325
g4
(lp4326
S'point%1:26:00::'
p4327
asg7
I00
ssS'd012.s002.t002'
p4328
(dp4329
g4
(lp4330
S'policy%1:10:00::'
p4331
asg7
I00
ssS'd006.s008.t006'
p4332
(dp4333
g4
(lp4334
S'rule%1:10:00::'
p4335
asg7
I00
ssS'd006.s008.t005'
p4336
(dp4337
g4
(lp4338
S'courtroom%1:06:00::'
p4339
asg7
I00
ssS'd006.s008.t004'
p4340
(dp4341
g4
(lp4342
S'question%1:10:01::'
p4343
asg7
I00
ssS'd012.s002.t006'
p4344
(dp4345
g4
(lp4346
S'police%1:14:00::'
p4347
asg7
I00
ssS'd006.s008.t002'
p4348
(dp4349
g4
(lp4350
S'appeal%1:04:00::'
p4351
asg7
I00
ssS'd012.s002.t004'
p4352
(dp4353
g4
(lp4354
S'aspect%1:07:02::'
p4355
asg7
I00
ssS'd012.s002.t005'
p4356
(dp4357
g4
(lp4358
S'congestion%1:26:01::'
p4359
asg7
I00
ssS'd012.s002.t008'
p4360
(dp4361
g4
(lp4362
S'policy%1:10:00::'
p4363
asg7
I00
ssS'd012.s002.t009'
p4364
(dp4365
g4
(lp4366
S'number%1:07:00::'
p4367
asg7
I00
ssS'd002.s002.t012'
p4368
(dp4369
g4
(lp4370
S'group%1:03:00::'
p4371
asg7
I00
ssS'd002.s002.t010'
p4372
(dp4373
g4
(lp4374
S'point%1:23:01::'
p4375
asg7
I00
ssS'd002.s002.t011'
p4376
(dp4377
g4
(lp4378
S'top%1:26:00::'
p4379
asg7
I00
ssS'd009.s029.t003'
p4380
(dp4381
g4
(lp4382
S'respondent%1:18:00::'
p4383
asg7
I00
ssS'd009.s029.t002'
p4384
(dp4385
g4
(lp4386
S'country%1:14:00::'
p4387
asg7
I00
ssS'd009.s029.t004'
p4388
(dp4389
g4
(lp4390
S'mexico%1:15:00::'
p4391
asg7
I00
ssS'd009.s029.t007'
p4392
(dp4393
g4
(lp4394
S'distinction%1:26:00::'
p4395
asg7
I00
ssS'd009.s029.t006'
p4396
(dp4397
g4
(lp4398
S'venezuela%1:15:00::'
p4399
asg7
I00
ssS'd009.s029.t008'
p4400
(dp4401
g4
(lp4402
S'ecuador%1:15:00::'
p4403
asg7
I00
ssS'd011.s008.t001'
p4404
(dp4405
g4
(lp4406
S'experience%1:11:00::'
p4407
asg7
I00
ssS'd010.s020.t004'
p4408
(dp4409
g4
(lp4410
S'claim%1:10:02::'
p4411
asg7
I00
ssS'd010.s020.t005'
p4412
(dp4413
g4
(lp4414
S'impartiality%1:09:00::'
p4415
asg7
I00
ssS'd011.s019.t001'
p4416
(dp4417
g4
(lp4418
S'match%1:11:00::'
p4419
asg7
I00
ssS'd010.s020.t001'
p4420
(dp4421
g4
(lp4422
S'appearance%1:04:00::'
p4423
asg7
I00
ssS'd010.s020.t002'
p4424
(dp4425
g4
(lp4426
S'assistance%1:04:00::'
p4427
asg7
I00
ssS'd011.s019.t002'
p4428
(dp4429
g4
(lp4430
S'spain%1:15:00::'
p4431
asg7
I00
ssS'd012.s011.t003'
p4432
(dp4433
g4
(lp4434
S'banality%1:10:00::'
p4435
asg7
I00
ssS'd012.s011.t001'
p4436
(dp4437
g4
(lp4438
S'program%1:09:00::'
p4439
asg7
I00
ssS'd009.s023.t010'
p4440
(dp4441
g4
(lp4442
S'chart%1:10:00::'
p4443
asg7
I00
ssS'd012.s011.t004'
p4444
(dp4445
g4
(lp4446
S'immigration%1:04:00::'
p4447
asg7
I00
ssS'd012.s011.t005'
p4448
(dp4449
g4
(lp4450
S'problem%1:26:00::'
p4451
asg7
I00
ssS'd012.s005.t003'
p4452
(dp4453
g4
(lp4454
S'left%1:14:00::'
p4455
asg7
I00
ssS'd012.s005.t002'
p4456
(dp4457
g4
(lp4458
S'consensus%1:26:00::'
p4459
asg7
I00
ssS'd012.s005.t001'
p4460
(dp4461
g4
(lp4462
S'lot%1:23:00::'
p4463
asg7
I00
ssS'd012.s005.t005'
p4464
(dp4465
g4
(lp4466
S'subject%1:10:00::'
p4467
asg7
I00
ssS'd012.s005.t004'
p4468
(dp4469
g4
(lp4470
S'right%1:14:00::'
p4471
asg7
I00
ssS'd009.s019.t003'
p4472
(dp4473
g4
(lp4474
S'week%1:28:02::'
p4475
asg7
I00
ssS'd009.s019.t006'
p4476
(dp4477
g4
(lp4478
S'poverty%1:26:00::'
p4479
asg7
I00
ssS'd009.s019.t007'
p4480
(dp4481
g4
(lp4482
S'year%1:28:01::'
p4483
asg7
I00
ssS'd009.s019.t004'
p4484
(dp4485
g4
(lp4486
S'proportion%1:24:01::'
p4487
asg7
I00
ssS'd002.s008.t009'
p4488
(dp4489
g4
(lp4490
S'lead%1:07:02::'
p4491
asg7
I00
ssS'd002.s008.t008'
p4492
(dp4493
g4
(lp4494
S'home%1:15:02::'
p4495
asg7
I00
ssS'd012.s021.t001'
p4496
(dp4497
g4
(lp4498
S'fact%1:09:01::'
p4499
asg7
I00
ssS'd012.s019.t008'
p4500
(dp4501
g4
(lp4502
S'arrival%1:04:01::'
p4503
asg7
I00
ssS'd012.s019.t009'
p4504
(dp4505
g4
(lp4506
S'immigrant%1:18:00::'
p4507
asg7
I00
ssS'd012.s021.t005'
p4508
(dp4509
g4
(lp4510
S'idea%1:09:00::'
p4511
asg7
I00
ssS'd012.s021.t004'
p4512
(dp4513
g4
(lp4514
S'creation%1:04:00::'
p4515
asg7
I00
ssS'd012.s021.t007'
p4516
(dp4517
g4
(lp4518
S'proportion%1:24:01::'
p4519
asg7
I00
ssS'd012.s019.t002'
p4520
(dp4521
g4
(lp4522
S'surgeon%1:18:00::'
p4523
asg7
I00
ssS'd012.s019.t003'
p4524
(dp4525
g4
(lp4526
S'country%1:14:00::'
p4527
asg7
I00
ssS'd012.s019.t001'
p4528
(dp4529
g4
(lp4530
S'way%1:07:01::'
p4531
asg7
I00
ssS'd012.s019.t006'
p4532
(dp4533
g4
(lp4534
S'complementarity%1:24:02::'
p4535
asg7
I00
ssS'd012.s019.t007'
p4536
(dp4537
g4
(lp4538
S'immigrant%1:18:00::'
p4539
asg7
I00
ssS'd012.s019.t004'
p4540
(dp4541
g4
(lp4542
S'shortage%1:07:00::'
p4543
asg7
I00
ssS'd012.s019.t005'
p4544
(dp4545
g4
(lp4546
S'anaesthetist%1:18:00::'
p4547
asg7
I00
ssS'd013.s022.t008'
p4548
(dp4549
g4
(lp4550
S'dollar%1:23:00::'
p4551
asg7
I00
ssS'd013.s022.t001'
p4552
(dp4553
g4
(lp4554
S'bank%1:14:00::'
p4555
asg7
I00
ssS'd013.s022.t003'
p4556
(dp4557
g4
(lp4558
S'lender%1:18:00::'
p4559
asg7
I00
ssS'd013.s022.t002'
p4560
(dp4561
g4
(lp4562
S'us%1:15:00::'
p4563
asg7
I00
ssS'd013.s022.t007'
p4564
(dp4565
g4
(lp4566
S'transaction%1:04:00::'
p4567
asg7
I00
ssS'd013.s022.t006'
p4568
(dp4569
g4
(lp4570
S'mortgage%1:21:00::'
p4571
asg7
I00
ssS'd008.s001.t002'
p4572
(dp4573
g4
(lp4574
S'possibility%1:26:00::'
p4575
asg7
I00
ssS'd008.s001.t003'
p4576
(dp4577
g4
(lp4578
S'type%1:09:00::'
p4579
asg7
I00
ssS'd008.s001.t001'
p4580
(dp4581
g4
(lp4582
S'microbe%1:05:00::'
p4583
asg7
I00
ssS'd001.s002.t002'
p4584
(dp4585
g4
(lp4586
S'conference%1:14:00::'
p4587
asg7
I00
ssS'd001.s002.t003'
p4588
(dp4589
g4
(lp4590
S'posturing%1:07:00::'
p4591
asg7
I00
ssS'd001.s002.t001'
p4592
(dp4593
g4
(lp4594
S'climate%1:26:00::'
p4595
asg7
I00
ssS'd001.s002.t006'
p4596
(dp4597
g4
(lp4598
S'friday%1:28:00::'
p4599
asg7
I00
ssS'd001.s002.t007'
p4600
(dp4601
g4
(lp4602
S'release%1:22:00::'
p4603
asg7
I00
ssS'd001.s002.t004'
p4604
(dp4605
g4
(lp4606
S'recrimination%1:10:00::'
p4607
asg7
I00
ssS'd001.s002.t005'
p4608
(dp4609
g4
(lp4610
S'focus%1:09:00::'
p4611
asg7
I00
ssS'd001.s002.t008'
p4612
(dp4613
g4
(lp4614
S'document%1:10:00::'
p4615
asg7
I00
ssS'd009.s009.t005'
p4616
(dp4617
g4
(lp4618
S'institution%1:14:00::'
p4619
asg7
I00
ssS'd009.s009.t004'
p4620
(dp4621
g4
(lp4622
S'democracy%1:14:00::'
p4623
asg7
I00
ssS'd009.s009.t003'
p4624
(dp4625
g4
(lp4626
S'attitude%1:09:00::'
p4627
asg7
I00
ssS'd009.s009.t002'
p4628
(dp4629
g4
(lp4630
S'stability%1:07:01::'
p4631
asg7
I00
ssS'd009.s009.t001'
p4632
(dp4633
g4
(lp4634
S'second%1:24:00::'
p4635
asg7
I00
ssS'd010.s002.t001'
p4636
(dp4637
g4
(lp4638
S'day%1:28:03::'
p4639
asg7
I00
ssS'd002.s008.t003'
p4640
(dp4641
g4
(lp4642
S'game%1:04:03::'
p4643
asg7
I00
ssS'd002.s008.t002'
p4644
(dp4645
g4
(lp4646
S'team%1:14:00::'
p4647
asg7
I00
ssS'd002.s008.t001'
p4648
(dp4649
g4
(lp4650
S'quarter%1:28:01::'
p4651
asg7
I00
ssS'd002.s008.t007'
p4652
(dp4653
g4
(lp4654
S'return%1:04:01::'
p4655
asg7
I00
ssS'd002.s008.t006'
p4656
(dp4657
g4
(lp4658
S'applause%1:10:00::'
p4659
asg7
I00
ssS'd002.s008.t005'
p4660
(dp4661
g4
(lp4662
S'whistle%1:10:00::'
p4663
asg7
I00
ssS'd002.s008.t004'
p4664
(dp4665
g4
(lp4666
S'work%1:04:00::'
p4667
asg7
I00
ssS'd013.s025.t004'
p4668
(dp4669
g4
(lp4670
S'claim%1:10:02::'
p4671
asg7
I00
ssS'd005.s008.t001'
p4672
(dp4673
g4
(lp4674
S'bank%1:14:00::'
p4675
asg7
I00
ssS'd013.s025.t002'
p4676
(dp4677
g4
(lp4678
S'claim%1:10:02::'
p4679
asg7
I00
ssS'd013.s025.t003'
p4680
(dp4681
g4
(lp4682
S'intention%1:09:00::'
p4683
asg7
I00
ssS'd012.s008.t001'
p4684
(dp4685
g4
(lp4686
S'fear%1:12:01::'
p4687
asg7
I00
ssS'd001.s014.t001'
p4688
(dp4689
g4
(lp4690
S'move%1:04:03::'
p4691
asg7
I00
ssS'd001.s014.t004'
p4692
(dp4693
g4
(lp4694
S'china%1:15:00::'
p4695
asg7
I00
ssS'd001.s014.t007'
p4696
(dp4697
g4
(lp4698
S'year%1:28:01::'
p4699
asg7
I00
ssS'd001.s014.t006'
p4700
(dp4701
g4
(lp4702
S'official%1:18:01::'
p4703
asg7
I00
ssS'd010.s002.t007'
p4704
(dp4705
g4
(lp4706
S'healthcare%1:04:01::'
p4707
asg7
I00
ssS'd010.s005.t009'
p4708
(dp4709
g4
(lp4710
S'time%1:11:00::'
p4711
asg7
I00
ssS'd010.s005.t008'
p4712
(dp4713
g4
(lp4714
S'swing%1:26:01::'
p4715
asg7
I00
ssS'd008.s016.t002'
p4716
(dp4717
g4
(lp4718
S'substitution%1:11:00::'
p4719
asg7
I00
ssS'd008.s016.t003'
p4720
(dp4721
g4
(lp4722
S'element%1:27:00::'
p4723
asg7
I00
ssS'd010.s005.t007'
p4724
(dp4725
g4
(lp4726
S'race%1:11:01::'
p4727
asg7
I00
ssS'd008.s016.t001'
p4728
(dp4729
g4
(lp4730
S'work%1:06:00::'
p4731
asg7
I00
ssS'd010.s005.t001'
p4732
(dp4733
g4
(lp4734
S'justice%1:18:00::'
p4735
asg7
I00
ssS'd010.s005.t003'
p4736
(dp4737
g4
(lp4738
S'hour%1:28:00::'
p4739
asg7
I00
ssS'd010.s005.t002'
p4740
(dp4741
g4
(lp4742
S'suit%1:04:00::'
p4743
asg7
I00
ssS'd001.s021.t001'
p4744
(dp4745
g4
(lp4746
S'country%1:14:00::'
p4747
asg7
I00
ssS'd013.s005.t003'
p4748
(dp4749
g4
(lp4750
S'regulator%1:18:00::'
p4751
asg7
I00
ssS'd012.s001.t004'
p4752
(dp4753
g4
(lp4754
S'economy%1:14:00::'
p4755
asg7
I00
ssS'd001.s021.t005'
p4756
(dp4757
g4
(lp4758
S'copenhagen%1:15:00::'
p4759
asg7
I00
ssS'd001.s021.t004'
p4760
(dp4761
g4
(lp4762
S'treaty%1:10:00::'
p4763
asg7
I00
ssS'd001.s021.t007'
p4764
(dp4765
g4
(lp4766
S'talk%1:10:00::'
p4767
asg7
I00
ssS'd001.s021.t006'
p4768
(dp4769
g4
(lp4770
S'participant%1:18:00::'
p4771
asg7
I00
ssS'd001.s021.t008'
p4772
(dp4773
g4
(lp4774
S'deal%1:10:00::'
p4775
asg7
I00
ssS'd004.s006.t001'
p4776
(dp4777
g4
(lp4778
S'bid%1:10:00::'
p4779
asg7
I00
ssS'd004.s013.t005'
p4780
(dp4781
g4
(lp4782
S'ministry%1:14:00::'
p4783
asg7
I00
ssS'd008.s025.t005'
p4784
(dp4785
g4
(lp4786
S'arsenic%1:27:00::'
p4787
asg7
I00
ssS'd008.s025.t006'
p4788
(dp4789
g4
(lp4790
S'phosphorus%1:27:00::'
p4791
asg7
I00
ssS'd008.s025.t007'
p4792
(dp4793
g4
(lp4794
S'example%1:11:00::'
p4795
asg7
I00
ssS'd010.s010.t003'
p4796
(dp4797
g4
(lp4798
S'hotel%1:06:00::'
p4799
asg7
I00
ssS'd010.s010.t002'
p4800
(dp4801
g4
(lp4802
S'washington%1:15:01::'
p4803
asg7
I00
ssS'd008.s025.t002'
p4804
(dp4805
g4
(lp4806
S'microbiology%1:09:00::'
p4807
asg7
I00
ssS'd006.s019.t003'
p4808
(dp4809
g4
(lp4810
S'judge%1:18:00::'
p4811
asg7
I00
ssS'd006.s019.t002'
p4812
(dp4813
g4
(lp4814
S'example%1:11:00::'
p4815
asg7
I00
ssS'd006.s019.t005'
p4816
(dp4817
g4
(lp4818
S'reaction%1:09:00::'
p4819
asg7
I00
ssS'd006.s019.t004'
p4820
(dp4821
g4
(lp4822
S'juror%1:18:00::'
p4823
asg7
I00
ssS'd006.s019.t006'
p4824
(dp4825
g4
(lp4826
S'photograph%1:06:00::'
p4827
asg7
I00
ssS'd012.s012.t005'
p4828
(dp4829
g4
(lp4830
S'asset%1:07:00::'
p4831
asg7
I00
ssS'd012.s012.t004'
p4832
(dp4833
g4
(lp4834
S'problem%1:26:00::'
p4835
asg7
I00
ssS'd008.s018.t004'
p4836
(dp4837
g4
(lp4838
S'institute%1:14:00::'
p4839
asg7
I00
ssS'd008.s018.t005'
p4840
(dp4841
g4
(lp4842
S'study%1:04:00::'
p4843
asg7
I00
ssS'd012.s012.t001'
p4844
(dp4845
g4
(lp4846
S'notion%1:09:02::'
p4847
asg7
I00
ssS'd008.s018.t007'
p4848
(dp4849
g4
(lp4850
S'arsenic%1:27:00::'
p4851
asg7
I00
ssS'd008.s018.t008'
p4852
(dp4853
g4
(lp4854
S'level%1:07:00::'
p4855
asg7
I00
ssS'd011.s014.t003'
p4856
(dp4857
g4
(lp4858
S'game%1:04:03::'
p4859
asg7
I00
ssS'd011.s014.t001'
p4860
(dp4861
g4
(lp4862
S'number%1:07:00::'
p4863
asg7
I00
ssS'd003.s008.t005'
p4864
(dp4865
g4
(lp4866
S'month%1:28:01::'
p4867
asg7
I00
ssS'd003.s008.t002'
p4868
(dp4869
g4
(lp4870
S'sale%1:04:02::'
p4871
asg7
I00
ssS'd003.s006.t006'
p4872
(dp4873
g4
(lp4874
S'year%1:28:01::'
p4875
asg7
I00
ssS'd001.s001.t004'
p4876
(dp4877
g4
(lp4878
S'emission%1:27:00::'
p4879
asg7
I00
ssS'd001.s001.t003'
p4880
(dp4881
g4
(lp4882
S'plan%1:09:00::'
p4883
asg7
I00
ssS'd001.s001.t002'
p4884
(dp4885
g4
(lp4886
S'group%1:03:00::'
p4887
asg7
I00
ssS'd010.s005.t005'
p4888
(dp4889
g4
(lp4890
S'march%1:28:00::'
p4891
asg7
I00
ssS'd003.s003.t009'
p4892
(dp4893
g4
(lp4894
S'point%1:26:00::'
p4895
asg7
I00
ssS'd003.s003.t008'
p4896
(dp4897
g4
(lp4898
S'predominance%1:26:00::'
p4899
asg7
I00
ssS'd003.s010.t008'
p4900
(dp4901
g4
(lp4902
S'situation%1:26:00::'
p4903
asg7
I00
ssS'd003.s010.t007'
p4904
(dp4905
g4
(lp4906
S'sector%1:14:00::'
p4907
asg7
I00
ssS'd003.s003.t002'
p4908
(dp4909
g4
(lp4910
S'figure%1:07:01::'
p4911
asg7
I00
ssS'd011.s003.t004'
p4912
(dp4913
g4
(lp4914
S'game%1:04:03::'
p4915
asg7
I00
ssS'd003.s010.t004'
p4916
(dp4917
g4
(lp4918
S'high%1:07:00::'
p4919
asg7
I00
ssS'd003.s010.t003'
p4920
(dp4921
g4
(lp4922
S'dollar%1:23:00::'
p4923
asg7
I00
ssS'd011.s003.t003'
p4924
(dp4925
g4
(lp4926
S'player%1:18:01::'
p4927
asg7
I00
ssS'd003.s003.t005'
p4928
(dp4929
g4
(lp4930
S'point%1:26:00::'
p4931
asg7
I00
ssS'd003.s003.t004'
p4932
(dp4933
g4
(lp4934
S'point%1:26:00::'
p4935
asg7
I00
ssS'd010.s005.t006'
p4936
(dp4937
g4
(lp4938
S'outcome%1:19:00::'
p4939
asg7
I00
ssS'd004.s005.t002'
p4940
(dp4941
g4
(lp4942
S'auction%1:04:00::'
p4943
asg7
I00
ssS'd004.s005.t003'
p4944
(dp4945
g4
(lp4946
S'friday%1:28:00::'
p4947
asg7
I00
ssS'd004.s005.t001'
p4948
(dp4949
g4
(lp4950
S'company%1:14:01::'
p4951
asg7
I00
ssS'd008.s016.t005'
p4952
(dp4953
g4
(lp4954
S'structure%1:07:00::'
p4955
asg7
I00
ssS'd012.s002.t011'
p4956
(dp4957
g4
(lp4958
S'policy%1:10:00::'
p4959
asg7
I00
ssS'd009.s016.t002'
p4960
(dp4961
g4
(lp4962
S'woe%1:26:00::'
p4963
asg7
I00
ssS'd012.s002.t013'
p4964
(dp4965
g4
(lp4966
S'country%1:14:00::'
p4967
asg7
I00
ssS'd012.s002.t012'
p4968
(dp4969
g4
(lp4970
S'status%1:26:01::'
p4971
asg7
I00
ssS'd012.s002.t014'
p4972
(dp4973
g4
(lp4974
S'country%1:14:00::'
p4975
asg7
I00
ssS'd009.s016.t005'
p4976
(dp4977
g4
(lp4978
S'democracy%1:14:00::'
p4979
asg7
I00
ssS'd009.s016.t004'
p4980
(dp4981
g4
(lp4982
S'support%1:04:00::'
p4983
asg7
I00
ssS'd010.s020.t003'
p4984
(dp4985
g4
(lp4986
S'event%1:03:00::'
p4987
asg7
I00
ssS'd002.s002.t008'
p4988
(dp4989
g4
(lp4990
S'team%1:14:00::'
p4991
asg7
I00
ssS'd009.s003.t001'
p4992
(dp4993
g4
(lp4994
S'crime%1:04:00::'
p4995
asg7
I00
ssS'd009.s003.t003'
p4996
(dp4997
g4
(lp4998
S'unemployment%1:26:00::'
p4999
asg7
I00
ssS'd009.s003.t002'
p5000
(dp5001
g4
(lp5002
S'worry%1:09:00::'
p5003
asg7
I00
ssS'd002.s002.t001'
p5004
(dp5005
g4
(lp5006
S'victory%1:11:00::'
p5007
asg7
I00
ssS'd002.s002.t002'
p5008
(dp5009
g4
(lp5010
S'visit%1:04:02::'
p5011
asg7
I00
ssS'd002.s002.t005'
p5012
(dp5013
g4
(lp5014
S'team%1:14:00::'
p5015
asg7
I00
ssS'd002.s002.t007'
p5016
(dp5017
g4
(lp5018
S'performance%1:04:00::'
p5019
asg7
I00
ssS'd002.s002.t006'
p5020
(dp5021
g4
(lp5022
S'loss%1:04:00::'
p5023
asg7
I00
ssS'd009.s023.t003'
p5024
(dp5025
g4
(lp5026
S'respondent%1:18:00::'
p5027
asg7
I00
ssS'd009.s023.t002'
p5028
(dp5029
g4
(lp5030
S'poll%1:09:00::'
p5031
asg7
I00
ssS'd009.s023.t001'
p5032
(dp5033
g4
(lp5034
S'time%1:11:00::'
p5035
asg7
I00
ssS'd009.s023.t007'
p5036
(dp5037
g4
(lp5038
S'unemployment%1:26:00::'
p5039
asg7
I00
ssS'd009.s023.t006'
p5040
(dp5041
g4
(lp5042
S'crime%1:04:00::'
p5043
asg7
I00
ssS'd009.s023.t005'
p5044
(dp5045
g4
(lp5046
S'whole%1:09:00::'
p5047
asg7
I00
ssS'd009.s023.t009'
p5048
(dp5049
g4
(lp5050
S'country%1:14:00::'
p5051
asg7
I00
ssS'd009.s023.t008'
p5052
(dp5053
g4
(lp5054
S'problem%1:26:00::'
p5055
asg7
I00
ssS'd009.s010.t006'
p5056
(dp5057
g4
(lp5058
S'table%1:14:00::'
p5059
asg7
I00
ssS'd009.s010.t001'
p5060
(dp5061
g4
(lp5062
S'support%1:04:00::'
p5063
asg7
I00
ssS'd009.s010.t003'
p5064
(dp5065
g4
(lp5066
S'country%1:14:00::'
p5067
asg7
I00
ssS'd009.s010.t002'
p5068
(dp5069
g4
(lp5070
S'democracy%1:14:00::'
p5071
asg7
I00
ssS'd011.s013.t006'
p5072
(dp5073
g4
(lp5074
S'striker%1:18:02::'
p5075
asg7
I00
ssS'd011.s013.t005'
p5076
(dp5077
g4
(lp5078
S'match%1:11:00::'
p5079
asg7
I00
ssS'd011.s013.t004'
p5080
(dp5081
g4
(lp5082
S'team%1:14:00::'
p5083
asg7
I00
ssS'd002.s014.t002'
p5084
(dp5085
g4
(lp5086
S'minute%1:28:00::'
p5087
asg7
I00
ssS'd011.s013.t001'
p5088
(dp5089
g4
(lp5090
S'week%1:28:02::'
p5091
asg7
I00
ssS'd002.s014.t001'
p5092
(dp5093
g4
(lp5094
S'period%1:28:02::'
p5095
asg7
I00
ssS'd001.s021.t002'
p5096
(dp5097
g4
(lp5098
S'impact%1:19:00::'
p5099
asg7
I00
ssS'd012.s001.t003'
p5100
(dp5101
g4
(lp5102
S'opportunity%1:26:00::'
p5103
asg7
I00
ssS'd012.s001.t002'
p5104
(dp5105
g4
(lp5106
S'burden%1:09:01::'
p5107
asg7
I00
ssS'd012.s001.t001'
p5108
(dp5109
g4
(lp5110
S'immigration%1:04:00::'
p5111
asg7
I00
ssS'd012.s019.t011'
p5112
(dp5113
g4
(lp5114
S'pay%1:21:01::'
p5115
asg7
I00
ssS'd012.s019.t010'
p5116
(dp5117
g4
(lp5118
S'effect%1:19:00::'
p5119
asg7
I00
ssS'd013.s005.t005'
p5120
(dp5121
g4
(lp5122
S'bank%1:14:00::'
p5123
asg7
I00
ssS'd006.s023.t004'
p5124
(dp5125
g4
(lp5126
S'trial%1:04:02::'
p5127
asg7
I00
ssS'd006.s023.t005'
p5128
(dp5129
g4
(lp5130
S'interest%1:09:00::'
p5131
asg7
I00
ssS'd006.s023.t001'
p5132
(dp5133
g4
(lp5134
S'argument%1:10:02::'
p5135
asg7
I00
ssS'd006.s023.t002'
p5136
(dp5137
g4
(lp5138
S'effect%1:19:00::'
p5139
asg7
I00
ssS'd006.s023.t003'
p5140
(dp5141
g4
(lp5142
S'coverage%1:10:00::'
p5143
asg7
I00
ssS'd001.s002.t011'
p5144
(dp5145
g4
(lp5146
S'year%1:28:01::'
p5147
asg7
I00
ssS'd001.s002.t010'
p5148
(dp5149
g4
(lp5150
S'reduction%1:04:00::'
p5151
asg7
I00
ssS'd001.s002.t013'
p5152
(dp5153
g4
(lp5154
S'burden%1:09:01::'
p5155
asg7
I00
ssS'd001.s002.t014'
p5156
(dp5157
g4
(lp5158
S'term%1:28:00::'
p5159
asg7
I00
ssS'd006.s027.t001'
p5160
(dp5161
g4
(lp5162
S'focus%1:09:00::'
p5163
asg7
I00
ssS'd006.s027.t003'
p5164
(dp5165
g4
(lp5166
S'coverage%1:10:00::'
p5167
asg7
I00
ssS'd013.s013.t001'
p5168
(dp5169
g4
(lp5170
S'settlement%1:10:00::'
p5171
asg7
I00
ssS'd006.s016.t008'
p5172
(dp5173
g4
(lp5174
S'professor%1:18:00::'
p5175
asg7
I00
ssS'd006.s016.t009'
p5176
(dp5177
g4
(lp5178
S'connecticut%1:15:00::'
p5179
asg7
I00
ssS'd011.s006.t004'
p5180
(dp5181
g4
(lp5182
S'panama%1:15:00::'
p5183
asg7
I00
ssS'd006.s016.t005'
p5184
(dp5185
g4
(lp5186
S'trial%1:04:02::'
p5187
asg7
I00
ssS'd006.s016.t001'
p5188
(dp5189
g4
(lp5190
S'reason%1:10:00::'
p5191
asg7
I00
ssS'd006.s016.t002'
p5192
(dp5193
g4
(lp5194
S'concern%1:12:01::'
p5195
asg7
I00
ssS'd006.s016.t003'
p5196
(dp5197
g4
(lp5198
S'impact%1:19:00::'
p5199
asg7
I00
ssS'd008.s025.t004'
p5200
(dp5201
g4
(lp5202
S'idea%1:09:00::'
p5203
asg7
I00
ssS'd013.s013.t002'
p5204
(dp5205
g4
(lp5206
S'kind%1:09:00::'
p5207
asg7
I00
ssS'd004.s013.t004'
p5208
(dp5209
g4
(lp5210
S'deal%1:10:00::'
p5211
asg7
I00
ssS'd011.s006.t001'
p5212
(dp5213
g4
(lp5214
S'number%1:07:00::'
p5215
asg7
I00
ssS'd010.s010.t005'
p5216
(dp5217
g4
(lp5218
S'court%1:14:00::'
p5219
asg7
I00
ssS'd010.s010.t004'
p5220
(dp5221
g4
(lp5222
S'hour%1:28:00::'
p5223
asg7
I00
ssS'd010.s004.t004'
p5224
(dp5225
g4
(lp5226
S'state%1:15:01::'
p5227
asg7
I00
ssS'd008.s026.t004'
p5228
(dp5229
g4
(lp5230
S'researcher%1:18:00::'
p5231
asg7
I00
ssS'd010.s004.t005'
p5232
(dp5233
g4
(lp5234
S'healthcare%1:04:01::'
p5235
asg7
I00
ssS'd008.s026.t001'
p5236
(dp5237
g4
(lp5238
S'arsenic%1:27:00::'
p5239
asg7
I00
ssS'd008.s026.t003'
p5240
(dp5241
g4
(lp5242
S'earth%1:17:00::'
p5243
asg7
I00
ssS'd008.s026.t002'
p5244
(dp5245
g4
(lp5246
S'time%1:28:05::'
p5247
asg7
I00
ssS'd006.s012.t001'
p5248
(dp5249
g4
(lp5250
S'decade%1:28:00::'
p5251
asg7
I00
ssS'd006.s012.t003'
p5252
(dp5253
g4
(lp5254
S'coverage%1:10:00::'
p5255
asg7
I00
ssS'd006.s012.t004'
p5256
(dp5257
g4
(lp5258
S'case%1:04:00::'
p5259
asg7
I00
ssS'd004.s013.t003'
p5260
(dp5261
g4
(lp5262
S'company%1:14:01::'
p5263
asg7
I00
ssS'd006.s012.t006'
p5264
(dp5265
g4
(lp5266
S'trial%1:04:02::'
p5267
asg7
I00
ssS'd006.s012.t007'
p5268
(dp5269
g4
(lp5270
S'fairness%1:09:00::'
p5271
asg7
I00
ssS'd004.s015.t001'
p5272
(dp5273
g4
(lp5274
S'company%1:14:01::'
p5275
asg7
I00
ssS'd009.s013.t004'
p5276
(dp5277
g4
(lp5278
S'brazil%1:15:00::'
p5279
asg7
I00
ssS'd009.s013.t005'
p5280
(dp5281
g4
(lp5282
S'region%1:15:00::'
p5283
asg7
I00
ssS'd009.s013.t006'
p5284
(dp5285
g4
(lp5286
S'country%1:14:00::'
p5287
asg7
I00
ssS'd009.s013.t007'
p5288
(dp5289
g4
(lp5290
S'democrat%1:18:00::'
p5291
asg7
I00
ssS'd009.s013.t001'
p5292
(dp5293
g4
(lp5294
S'half%1:23:00::'
p5295
asg7
I00
ssS'd009.s013.t002'
p5296
(dp5297
g4
(lp5298
S'respondent%1:18:00::'
p5299
asg7
I00
ssS'd009.s013.t003'
p5300
(dp5301
g4
(lp5302
S'mexico%1:15:00::'
p5303
asg7
I00
ssS'd009.s013.t008'
p5304
(dp5305
g4
(lp5306
S'average%1:09:00::'
p5307
asg7
I00
ssS'd009.s013.t009'
p5308
(dp5309
g4
(lp5310
S'chart%1:10:00::'
p5311
asg7
I00
ssS'd012.s023.t014'
p5312
(dp5313
g4
(lp5314
S'lifetime%1:28:00::'
p5315
asg7
I00
ssS'd012.s023.t010'
p5316
(dp5317
g4
(lp5318
S'expenditure%1:21:00::'
p5319
asg7
I00
ssS'd012.s023.t011'
p5320
(dp5321
g4
(lp5322
S'average%1:09:00::'
p5323
asg7
I00
ssS'd012.s023.t012'
p5324
(dp5325
g4
(lp5326
S'euro%1:23:00::'
p5327
asg7
I00
ssS'd012.s023.t013'
p5328
(dp5329
g4
(lp5330
S'budget%1:21:03::'
p5331
asg7
I00
ssS'd004.s002.t007'
p5332
(dp5333
g4
(lp5334
S'auction%1:04:00::'
p5335
asg7
I00
ssS'd004.s002.t006'
p5336
(dp5337
g4
(lp5338
S'infrastructure%1:06:00::'
p5339
asg7
I00
ssS'd004.s002.t004'
p5340
(dp5341
g4
(lp5342
S'government%1:14:00::'
p5343
asg7
I00
ssS'd004.s002.t003'
p5344
(dp5345
g4
(lp5346
S'instability%1:07:00::'
p5347
asg7
I00
ssS'd004.s002.t002'
p5348
(dp5349
g4
(lp5350
S'violence%1:26:00::'
p5351
asg7
I00
ssS'd004.s002.t001'
p5352
(dp5353
g4
(lp5354
S'concern%1:09:00::'
p5355
asg7
I00
ssS'd004.s002.t008'
p5356
(dp5357
g4
(lp5358
S'saturday%1:28:00::'
p5359
asg7
I00
ssS'd010.s009.t001'
p5360
(dp5361
g4
(lp5362
S'sponsor%1:18:00::'
p5363
asg7
I00
ssS'd010.s009.t002'
p5364
(dp5365
g4
(lp5366
S'giant%1:14:00::'
p5367
asg7
I00
ssS'd010.s009.t005'
p5368
(dp5369
g4
(lp5370
S'outcome%1:11:00::'
p5371
asg7
I00
ssS'd010.s009.t004'
p5372
(dp5373
g4
(lp5374
S'stake%1:21:02::'
p5375
asg7
I00
ssS'd010.s009.t006'
p5376
(dp5377
g4
(lp5378
S'litigation%1:04:00::'
p5379
asg7
I00
ssS'd005.s006.t002'
p5380
(dp5381
g4
(lp5382
S'investor%1:18:00::'
p5383
asg7
I00
ssS'd005.s006.t003'
p5384
(dp5385
g4
(lp5386
S'loan%1:21:00::'
p5387
asg7
I00
ssS'd001.s016.t011'
p5388
(dp5389
g4
(lp5390
S'china%1:15:00::'
p5391
asg7
I00
ssS'd006.s004.t002'
p5392
(dp5393
g4
(lp5394
S'defense%1:14:00::'
p5395
asg7
I00
ssS'd006.s004.t001'
p5396
(dp5397
g4
(lp5398
S'end%1:11:00::'
p5399
asg7
I00
ssS'd006.s004.t007'
p5400
(dp5401
g4
(lp5402
S'child%1:18:00::'
p5403
asg7
I00
ssS'd006.s004.t006'
p5404
(dp5405
g4
(lp5406
S'rape%1:04:00::'
p5407
asg7
I00
ssS'd006.s004.t005'
p5408
(dp5409
g4
(lp5410
S'trial%1:04:02::'
p5411
asg7
I00
ssS'd006.s004.t004'
p5412
(dp5413
g4
(lp5414
S'message%1:10:01::'
p5415
asg7
I00
ssS'd009.s004.t001'
p5416
(dp5417
g4
(lp5418
S'brazil%1:15:00::'
p5419
asg7
I00
ssS'd006.s004.t009'
p5420
(dp5421
g4
(lp5422
S'house%1:06:00::'
p5423
asg7
I00
ssS'd009.s004.t003'
p5424
(dp5425
g4
(lp5426
S'region%1:15:01::'
p5427
asg7
I00
ssS'd008.s018.t002'
p5428
(dp5429
g4
(lp5430
S'nasa%1:14:00::'
p5431
asg7
I00
ssS'd008.s018.t003'
p5432
(dp5433
g4
(lp5434
S'astrobiology%1:09:00::'
p5435
asg7
I00
ssS'd012.s012.t003'
p5436
(dp5437
g4
(lp5438
S'burden%1:09:01::'
p5439
asg7
I00
ssS'd012.s012.t002'
p5440
(dp5441
g4
(lp5442
S'immigration%1:04:00::'
p5443
asg7
I00
ssS'd007.s021.t002'
p5444
(dp5445
g4
(lp5446
S'advantage%1:07:01::'
p5447
asg7
I00
ssS'd007.s021.t001'
p5448
(dp5449
g4
(lp5450
S'round%1:28:01::'
p5451
asg7
I00
ssS'd013.s002.t010'
p5452
(dp5453
g4
(lp5454
S'usa%1:15:00::'
p5455
asg7
I00
ssS'd007.s014.t009'
p5456
(dp5457
g4
(lp5458
S'action%1:04:02::'
p5459
asg7
I00
ssS'd007.s014.t008'
p5460
(dp5461
g4
(lp5462
S'sanction%1:04:02::'
p5463
asg7
I00
ssS'd011.s003.t001'
p5464
(dp5465
g4
(lp5466
S'side%1:14:00::'
p5467
asg7
I00
ssS'd006.s021.t010'
p5468
(dp5469
g4
(lp5470
S'jury%1:14:00::'
p5471
asg7
I00
ssS'd003.s009.t001'
p5472
(dp5473
g4
(lp5474
S'confidence%1:26:02::'
p5475
asg7
I00
ssS'd003.s009.t003'
p5476
(dp5477
g4
(lp5478
S'december%1:28:00::'
p5479
asg7
I00
ssS'd003.s009.t002'
p5480
(dp5481
g4
(lp5482
S'consumer%1:18:00::'
p5483
asg7
I00
ssS'd003.s009.t005'
p5484
(dp5485
g4
(lp5486
S'estimate%1:09:00::'
p5487
asg7
I00
ssS'd003.s009.t004'
p5488
(dp5489
g4
(lp5490
S'month%1:28:01::'
p5491
asg7
I00
ssS'd003.s009.t007'
p5492
(dp5493
g4
(lp5494
S'index%1:10:01::'
p5495
asg7
I00
ssS'd012.s003.t008'
p5496
(dp5497
g4
(lp5498
S'waiter%1:18:00::'
p5499
asg7
I00
ssS'd012.s003.t005'
p5500
(dp5501
g4
(lp5502
S'france%1:15:00::'
p5503
asg7
I00
ssS'd012.s003.t007'
p5504
(dp5505
g4
(lp5506
S'bricklayer%1:18:00::'
p5507
asg7
I00
ssS'd012.s003.t006'
p5508
(dp5509
g4
(lp5510
S'talent%1:18:00::'
p5511
asg7
I00
ssS'd012.s003.t001'
p5512
(dp5513
g4
(lp5514
S'harassment%1:04:00::'
p5515
asg7
I00
ssS'd012.s003.t002'
p5516
(dp5517
g4
(lp5518
S'student%1:18:00::'
p5519
asg7
I00
ssS'd006.s016.t011'
p5520
(dp5521
g4
(lp5522
S'report%1:10:03::'
p5523
asg7
I00
ssS'd007.s009.t014'
p5524
(dp5525
g4
(lp5526
S'history%1:28:02::'
p5527
asg7
I00
ssS'd007.s009.t012'
p5528
(dp5529
g4
(lp5530
S'act%1:03:00::'
p5531
asg7
I00
ssS'd001.s008.t001'
p5532
(dp5533
g4
(lp5534
S'document%1:10:00::'
p5535
asg7
I00
ssS'd012.s024.t002'
p5536
(dp5537
g4
(lp5538
S'start%1:11:00::'
p5539
asg7
I00
ssS'd012.s024.t003'
p5540
(dp5541
g4
(lp5542
S'mandate%1:04:00::'
p5543
asg7
I00
ssS'd012.s013.t021'
p5544
(dp5545
g4
(lp5546
S'immigrant%1:18:00::'
p5547
asg7
I00
ssS'd007.s009.t010'
p5548
(dp5549
g4
(lp5550
S'honor%1:07:00::'
p5551
asg7
I00
ssS'd012.s024.t004'
p5552
(dp5553
g4
(lp5554
S'point%1:10:03::'
p5555
asg7
I00
ssS'd012.s024.t005'
p5556
(dp5557
g4
(lp5558
S'growth%1:22:02::'
p5559
asg7
I00
ssS'd007.s009.t011'
p5560
(dp5561
g4
(lp5562
S'player%1:18:01::'
p5563
asg7
I00
ssS'd012.s016.t008'
p5564
(dp5565
g4
(lp5566
S'labor%1:14:00::'
p5567
asg7
I00
ssS'd009.s025.t011'
p5568
(dp5569
g4
(lp5570
S'chart%1:10:00::'
p5571
asg7
I00
ssS'd012.s016.t003'
p5572
(dp5573
g4
(lp5574
S'immigrant%1:18:00::'
p5575
asg7
I00
ssS'd012.s016.t002'
p5576
(dp5577
g4
(lp5578
S'reality%1:26:02::'
p5579
asg7
I00
ssS'd012.s016.t001'
p5580
(dp5581
g4
(lp5582
S'experience%1:09:01::'
p5583
asg7
I00
ssS'd012.s016.t007'
p5584
(dp5585
g4
(lp5586
S'shortage%1:07:00::'
p5587
asg7
I00
ssS'd012.s016.t006'
p5588
(dp5589
g4
(lp5590
S'trade%1:04:00::'
p5591
asg7
I00
ssS'd012.s016.t005'
p5592
(dp5593
g4
(lp5594
S'labor%1:14:00::'
p5595
asg7
I00
ssS'd012.s016.t004'
p5596
(dp5597
g4
(lp5598
S'replacement%1:18:02::'
p5599
asg7
I00
ssS'd002.s013.t010'
p5600
(dp5601
g4
(lp5602
S'quarter%1:28:01::'
p5603
asg7
I00
ssS'd013.s021.t003'
p5604
(dp5605
g4
(lp5606
S'wave%1:04:02::'
p5607
asg7
I00
ssS'd010.s006.t001'
p5608
(dp5609
g4
(lp5610
S'lawyer%1:18:00::'
p5611
asg7
I00
ssS'd010.s006.t002'
p5612
(dp5613
g4
(lp5614
S'court%1:14:00::'
p5615
asg7
I00
ssS'd010.s006.t003'
p5616
(dp5617
g4
(lp5618
S'law%1:10:00::'
p5619
asg7
I00
ssS'd013.s021.t004'
p5620
(dp5621
g4
(lp5622
S'claim%1:10:00::'
p5623
aS'claim%1:04:00::'
p5624
asg7
I00
ssS'd012.s023.t009'
p5625
(dp5626
g4
(lp5627
S'receipt%1:10:00::'
p5628
asg7
I00
ssS'd012.s023.t008'
p5629
(dp5630
g4
(lp5631
S'contribution%1:04:02::'
p5632
asg7
I00
ssS'd012.s023.t003'
p5633
(dp5634
g4
(lp5635
S'organisation%1:14:01::'
p5636
asg7
I00
ssS'd012.s023.t002'
p5637
(dp5638
g4
(lp5639
S'labor%1:14:00::'
p5640
asg7
I00
ssS'd012.s023.t001'
p5641
(dp5642
g4
(lp5643
S'world%1:17:00::'
p5644
asg7
I00
ssS'd012.s023.t007'
p5645
(dp5646
g4
(lp5647
S'age%1:07:00::'
p5648
asg7
I00
ssS'd012.s023.t006'
p5649
(dp5650
g4
(lp5651
S'immigrant%1:18:00::'
p5652
asg7
I00
ssS'd012.s023.t005'
p5653
(dp5654
g4
(lp5655
S'germany%1:15:00::'
p5656
asg7
I00
ssS'd012.s023.t004'
p5657
(dp5658
g4
(lp5659
S'example%1:11:00::'
p5660
asg7
I00
ssS'd001.s011.t002'
p5661
(dp5662
g4
(lp5663
S'talk%1:10:00::'
p5664
asg7
I00
ssS'd001.s011.t003'
p5665
(dp5666
g4
(lp5667
S'boost%1:04:01::'
p5668
asg7
I00
ssS'd001.s011.t006'
p5669
(dp5670
g4
(lp5671
S'year%1:28:01::'
p5672
asg7
I00
ssS'd001.s011.t007'
p5673
(dp5674
g4
(lp5675
S'country%1:14:00::'
p5676
asg7
I00
ssS'd001.s011.t004'
p5677
(dp5678
g4
(lp5679
S'friday%1:28:00::'
p5680
asg7
I00
ssS'd001.s011.t005'
p5681
(dp5682
g4
(lp5683
S'year%1:28:01::'
p5684
asg7
I00
ssS'd001.s011.t008'
p5685
(dp5686
g4
(lp5687
S'impact%1:19:00::'
p5688
asg7
I00
ssS'd013.s005.t006'
p5689
(dp5690
g4
(lp5691
S'promise%1:10:00::'
p5692
asg7
I00
ssS'd001.s005.t008'
p5693
(dp5694
g4
(lp5695
S'term%1:28:00::'
p5696
asg7
I00
ssS'd007.s024.t001'
p5697
(dp5698
g4
(lp5699
S'decision%1:09:00::'
p5700
asg7
I00
ssS'd007.s024.t002'
p5701
(dp5702
g4
(lp5703
S'punishment%1:04:00::'
p5704
asg7
I00
ssS'd001.s005.t003'
p5705
(dp5706
g4
(lp5707
S'text%1:10:01::'
p5708
aS'text%1:10:00::'
p5709
asg7
I00
ssS'd013.s023.t004'
p5710
(dp5711
g4
(lp5712
S'transaction%1:04:00::'
p5713
asg7
I00
ssS'd013.s023.t005'
p5714
(dp5715
g4
(lp5716
S'value%1:21:00::'
p5717
asg7
I00
ssS'd001.s005.t006'
p5718
(dp5719
g4
(lp5720
S'one%1:09:00::'
p5721
asg7
I00
ssS'd001.s005.t005'
p5722
(dp5723
g4
(lp5724
S'country%1:14:00::'
p5725
asg7
I00
ssS'd001.s005.t004'
p5726
(dp5727
g4
(lp5728
S'money%1:21:00::'
p5729
asg7
I00
ssS'd010.s024.t002'
p5730
(dp5731
g4
(lp5732
S'administration%1:14:00::'
p5733
asg7
I00
ssS'd010.s024.t003'
p5734
(dp5735
g4
(lp5736
S'challenge%1:10:01::'
p5737
asg7
I00
ssS'd010.s024.t004'
p5738
(dp5739
g4
(lp5740
S'law%1:10:00::'
p5741
asg7
I00
ssS'd010.s024.t006'
p5742
(dp5743
g4
(lp5744
S'level%1:07:00::'
p5745
asg7
I00
ssS'd013.s017.t004'
p5746
(dp5747
g4
(lp5748
S'us%1:15:00::'
p5749
asg7
I00
ssS'd013.s017.t001'
p5750
(dp5751
g4
(lp5752
S'fate%1:11:00::'
p5753
asg7
I00
ssS'd013.s017.t003'
p5754
(dp5755
g4
(lp5756
S'company%1:14:01::'
p5757
asg7
I00
ssS'd013.s017.t002'
p5758
(dp5759
g4
(lp5760
S'number%1:07:00::'
p5761
asg7
I00
ssS'd001.s024.t002'
p5762
(dp5763
g4
(lp5764
S'urgency%1:26:00::'
p5765
asg7
I00
ssS'd001.s024.t003'
p5766
(dp5767
g4
(lp5768
S'delegate%1:18:00::'
p5769
asg7
I00
ssS'd001.s024.t001'
p5770
(dp5771
g4
(lp5772
S'talk%1:10:00::'
p5773
asg7
I00
ssS'd001.s024.t004'
p5774
(dp5775
g4
(lp5776
S'fact%1:09:01::'
p5777
asg7
I00
ssS'd001.s024.t005'
p5778
(dp5779
g4
(lp5780
S'issue%1:09:01::'
p5781
asg7
I00
ssS'd001.s019.t003'
p5782
(dp5783
g4
(lp5784
S'cost%1:21:00::'
p5785
asg7
I00
ssS'd001.s024.t008'
p5786
(dp5787
g4
(lp5788
S'deal%1:10:00::'
p5789
asg7
I00
ssS'd001.s019.t001'
p5790
(dp5791
g4
(lp5792
S'delegate%1:18:00::'
p5793
asg7
I00
ssS'd001.s019.t006'
p5794
(dp5795
g4
(lp5796
S'action%1:04:02::'
p5797
asg7
I00
ssS'd001.s019.t005'
p5798
(dp5799
g4
(lp5800
S'country%1:14:00::'
p5801
asg7
I00
ssS'd001.s016.t009'
p5802
(dp5803
g4
(lp5804
S'week%1:28:02::'
p5805
asg7
I00
ssS'd001.s016.t002'
p5806
(dp5807
g4
(lp5808
S'hour%1:28:01::'
p5809
asg7
I00
ssS'd001.s016.t001'
p5810
(dp5811
g4
(lp5812
S'comment%1:10:00::'
p5813
asg7
I00
ssS'd001.s016.t007'
p5814
(dp5815
g4
(lp5816
S'negotiator%1:18:00::'
p5817
asg7
I00
ssS'd001.s016.t006'
p5818
(dp5819
g4
(lp5820
S'climate%1:26:00::'
p5821
asg7
I00
ssS'd001.s016.t005'
p5822
(dp5823
g4
(lp5824
S'america%1:15:00::'
p5825
asg7
I00
ssS'd013.s019.t003'
p5826
(dp5827
g4
(lp5828
S'usa%1:15:00::'
p5829
asg7
I00
ssS'd013.s019.t002'
p5830
(dp5831
g4
(lp5832
S'wind%1:19:01::'
p5833
asg7
I00
ssS'd013.s019.t001'
p5834
(dp5835
g4
(lp5836
S'bank%1:14:00::'
p5837
asg7
I00
ssS'd013.s019.t004'
p5838
(dp5839
g4
(lp5840
S'year%1:28:01::'
p5841
asg7
I00
ssS'd008.s005.t002'
p5842
(dp5843
g4
(lp5844
S'arsenic%1:27:00::'
p5845
asg7
I00
ssS'd008.s005.t001'
p5846
(dp5847
g4
(lp5848
S'phosphorus%1:27:00::'
p5849
asg7
I00
ssS'd007.s017.t002'
p5850
(dp5851
g4
(lp5852
S'rival%1:18:00::'
p5853
asg7
I00
ssS'd007.s017.t003'
p5854
(dp5855
g4
(lp5856
S'benefit%1:07:00::'
p5857
asg7
I00
ssS'd007.s017.t001'
p5858
(dp5859
g4
(lp5860
S'situation%1:26:00::'
p5861
asg7
I00
ssS'd007.s017.t006'
p5862
(dp5863
g4
(lp5864
S'action%1:04:02::'
p5865
asg7
I00
ssS'd007.s017.t007'
p5866
(dp5867
g4
(lp5868
S'team%1:14:00::'
p5869
asg7
I00
ssS'd007.s017.t004'
p5870
(dp5871
g4
(lp5872
S'game%1:04:03::'
p5873
asg7
I00
ssS'd007.s017.t005'
p5874
(dp5875
g4
(lp5876
S'result%1:19:00::'
p5877
asg7
I00
ssS'd003.s006.t004'
p5878
(dp5879
g4
(lp5880
S'case%1:09:00::'
p5881
asg7
I00
ssS'd003.s006.t005'
p5882
(dp5883
g4
(lp5884
S'end%1:28:00::'
p5885
asg7
I00
ssS'd007.s017.t008'
p5886
(dp5887
g4
(lp5888
S'player%1:18:01::'
p5889
asg7
I00
ssS'd003.s006.t002'
p5890
(dp5891
g4
(lp5892
S'trading%1:04:00::'
p5893
asg7
I00
ssS'd003.s006.t003'
p5894
(dp5895
g4
(lp5896
S'volume%1:07:03::'
p5897
asg7
I00
ssS'd011.s021.t001'
p5898
(dp5899
g4
(lp5900
S'rest%1:24:00::'
p5901
asg7
I00
ssS'd013.s002.t009'
p5902
(dp5903
g4
(lp5904
S'fine%1:21:00::'
p5905
asg7
I00
ssS'd013.s002.t008'
p5906
(dp5907
g4
(lp5908
S'pound%1:23:01::'
p5909
asg7
I00
ssS'd013.s002.t002'
p5910
(dp5911
g4
(lp5912
S'uproar%1:26:00::'
p5913
asg7
I00
ssS'd013.s002.t001'
p5914
(dp5915
g4
(lp5916
S'trouble%1:09:00::'
p5917
asg7
I00
ssS'd013.s002.t004'
p5918
(dp5919
g4
(lp5920
S'ceo%1:18:00::'
p5921
asg7
I00
ssS'd004.s008.t004'
p5922
(dp5923
g4
(lp5924
S'iraq%1:15:00::'
p5925
asg7
I00
ssS'd004.s008.t006'
p5926
(dp5927
g4
(lp5928
S'analyst%1:18:02::'
p5929
asg7
I00
ssS'd004.s008.t001'
p5930
(dp5931
g4
(lp5932
S'representation%1:04:01::'
p5933
asg7
I00
ssS'd004.s008.t003'
p5934
(dp5935
g4
(lp5936
S'giant%1:14:00::'
p5937
asg7
I00
ssS'd004.s008.t002'
p5938
(dp5939
g4
(lp5940
S'oil%1:27:01::'
p5941
asg7
I00
ssS'd006.s006.t001'
p5942
(dp5943
g4
(lp5944
S'lawyer%1:18:00::'
p5945
asg7
I00
ssS'd006.s006.t003'
p5946
(dp5947
g4
(lp5948
S'filing%1:10:00::'
p5949
asg7
I00
ssS'd006.s006.t002'
p5950
(dp5951
g4
(lp5952
S'court%1:14:00::'
p5953
asg7
I00
ssS'd006.s006.t005'
p5954
(dp5955
g4
(lp5956
S'argument%1:10:02::'
p5957
asg7
I00
ssS'd006.s006.t004'
p5958
(dp5959
g4
(lp5960
S'appeal%1:04:00::'
p5961
asg7
I00
ssS'd006.s006.t007'
p5962
(dp5963
g4
(lp5964
S'year%1:28:01::'
p5965
asg7
I00
ssS'd006.s006.t006'
p5966
(dp5967
g4
(lp5968
S'court%1:14:00::'
p5969
asg7
I00
ssS'd003.s005.t001'
p5970
(dp5971
g4
(lp5972
S'market%1:14:01::'
p5973
asg7
I00
ssS'd007.s020.t008'
p5974
(dp5975
g4
(lp5976
S'action%1:04:02::'
p5977
asg7
I00
ssS'd007.s020.t009'
p5978
(dp5979
g4
(lp5980
S'player%1:18:01::'
p5981
asg7
I00
ssS'd007.s020.t001'
p5982
(dp5983
g4
(lp5984
S'term%1:28:00::'
p5985
asg7
I00
ssS'd007.s020.t002'
p5986
(dp5987
g4
(lp5988
S'advantage%1:07:01::'
p5989
asg7
I00
ssS'd007.s020.t003'
p5990
(dp5991
g4
(lp5992
S'degree%1:26:01::'
p5993
asg7
I00
ssS'd007.s020.t004'
p5994
(dp5995
g4
(lp5996
S'indetermination%1:07:00::'
p5997
asg7
I00
ssS'd007.s020.t005'
p5998
(dp5999
g4
(lp6000
S'team%1:14:00::'
p6001
asg7
I00
ssS'd007.s020.t006'
p6002
(dp6003
g4
(lp6004
S'change%1:11:00::'
p6005
asg7
I00
ssS'd007.s020.t007'
p6006
(dp6007
g4
(lp6008
S'addition%1:21:00::'
p6009
asg7
I00
ssS'd009.s014.t011'
p6010
(dp6011
g4
(lp6012
S'chart%1:10:00::'
p6013
asg7
I00
ssS'd004.s010.t002'
p6014
(dp6015
g4
(lp6016
S'offer%1:10:00::'
p6017
asg7
I00
ssS'd004.s010.t003'
p6018
(dp6019
g4
(lp6020
S'iraq%1:15:00::'
p6021
asg7
I00
ssS'd001.s012.t004'
p6022
(dp6023
g4
(lp6024
S'week%1:28:02::'
p6025
asg7
I00
ssS'd001.s012.t003'
p6026
(dp6027
g4
(lp6028
S'talk%1:10:00::'
p6029
asg7
I00
ssS'd001.s012.t002'
p6030
(dp6031
g4
(lp6032
S'sort%1:09:00::'
p6033
asg7
I00
ssS'd001.s012.t001'
p6034
(dp6035
g4
(lp6036
S'friday%1:28:00::'
p6037
asg7
I00
ssS'd007.s010.t010'
p6038
(dp6039
g4
(lp6040
S'sport%1:04:00::'
p6041
asg7
I00
ssS'd007.s010.t011'
p6042
(dp6043
g4
(lp6044
S'regulation%1:10:00::'
p6045
asg7
I00
ssS'd007.s010.t012'
p6046
(dp6047
g4
(lp6048
S'sense%1:09:04::'
p6049
asg7
I00
ssS'd004.s014.t001'
p6050
(dp6051
g4
(lp6052
S'u.s.%1:15:00::'
p6053
asg7
I00
ssS'd004.s014.t002'
p6054
(dp6055
g4
(lp6056
S'firm%1:14:00::'
p6057
asg7
I00
ssS'd004.s014.t005'
p6058
(dp6059
g4
(lp6060
S'tie%1:11:00::'
p6061
asg7
I00
ssS'd004.s014.t007'
p6062
(dp6063
g4
(lp6064
S'advice%1:10:00::'
p6065
asg7
I00
ssS'd004.s014.t008'
p6066
(dp6067
g4
(lp6068
S'year%1:28:01::'
p6069
asg7
I00
ss.