(dp1
S'd003.s010.t010'
p2
(dp3
S'gold_keys'
p4
(lp5
S'left%1:15:00::'
p6
asS'mw'
p7
I00
ssS'd003.s010.t012'
p8
(dp9
g4
(lp10
S'right%1:15:00::'
p11
asg7
I00
ssS'd001.s031.t002'
p12
(dp13
g4
(lp14
S'gain%1:07:02::'
p15
aS'profit%1:07:00::'
p16
asg7
I00
ssS'd003.s010.t017'
p17
(dp18
g4
(lp19
S'employment%1:04:00::'
p20
aS'employment%1:04:02::'
p21
aS'engagement%1:04:02::'
p22
aS'work%1:04:01::'
p23
asg7
I00
ssS'd003.s010.t019'
p24
(dp25
g4
(lp26
S'industrial%3:01:00::'
p27
asg7
I00
ssS'd004.s017.t037'
p28
(dp29
g4
(lp30
S'intervention%1:04:02::'
p31
aS'treatment%1:04:00::'
p32
asg7
I00
ssS'd004.s017.t030'
p33
(dp34
g4
(lp35
S'experience%2:39:00::'
p36
aS'get%2:39:00::'
p37
aS'have%2:39:06::'
p38
aS'receive%2:39:03::'
p39
asg7
I00
ssS'd004.s017.t032'
p40
(dp41
g4
(lp42
S'placebo%1:06:00::'
p43
asg7
I00
ssS'd001.s003.t028'
p44
(dp45
g4
(lp46
S'doc%1:18:00::'
p47
aS'doctor%1:18:00::'
p48
aS'dr.%1:18:00::'
p49
aS'md%1:18:00::'
p50
aS'medico%1:18:00::'
p51
aS'physician%1:18:00::'
p52
asg7
I00
ssS'd003.s006.t013'
p53
(dp54
g4
(lp55
S'ministry%1:14:00::'
p56
asg7
I00
ssS'd003.s006.t012'
p57
(dp58
g4
(lp59
S'spanish%3:01:00::'
p60
asg7
I00
ssS'd004.s006.t019'
p61
(dp62
g4
(lp63
S'amount%1:03:00::'
p64
aS'measure%1:03:00::'
p65
aS'quantity%1:03:00::'
p66
asg7
I00
ssS'd004.s002.t027'
p67
(dp68
g4
(lp69
S'apply%2:34:00::'
p70
aS'employ%2:34:00::'
p71
aS'habituate%2:34:00::'
p72
aS'use%2:34:01::'
p73
aS'use%2:34:02::'
p74
aS'utilise%2:34:00::'
p75
aS'utilize%2:34:00::'
p76
asg7
I00
ssS'd004.s002.t023'
p77
(dp78
g4
(lp79
S'recommendation%1:10:00::'
p80
asg7
I00
ssS'd001.s020.t006'
p81
(dp82
g4
(lp83
S'employment%1:04:01::'
p84
aS'exercise%1:04:03::'
p85
aS'usage%1:04:00::'
p86
aS'use%1:04:00::'
p87
aS'use%1:07:02::'
p88
aS'utilisation%1:04:00::'
p89
aS'utilization%1:04:00::'
p90
asg7
I00
ssS'd001.s027.t006'
p91
(dp92
g4
(lp93
S'combination%1:04:00::'
p94
aS'combination%1:14:00::'
p95
aS'combining%1:04:00::'
p96
aS'compounding%1:04:00::'
p97
asg7
I00
ssS'd001.s020.t004'
p98
(dp99
g4
(lp100
S'advocate%2:32:00::'
p101
aS'recommend%2:32:01::'
p102
aS'urge%2:32:03::'
p103
asg7
I00
ssS'd001.s020.t003'
p104
(dp105
g4
(lp106
S'non%4:02:00::'
p107
aS'not%4:02:00::'
p108
asg7
I00
ssS'd001.s028.t015'
p109
(dp110
g4
(lp111
S'compare%2:31:00::'
p112
asg7
I00
ssS'd004.s023.t009'
p113
(dp114
g4
(lp115
S'give%2:40:13::'
p116
asg7
I00
ssS'd003.s004.t014'
p117
(dp118
g4
(lp119
S'planning%1:04:00::'
p120
aS'planning%1:04:02::'
p121
asg7
I00
ssS'd001.s028.t011'
p122
(dp123
g4
(lp124
S'effect%1:26:00::'
p125
asg7
I00
ssS'd001.s020.t008'
p126
(dp127
g4
(lp128
S'patient%1:18:00::'
p129
asg7
I00
ssS'd003.s019.t022'
p130
(dp131
g4
(lp132
S'especially%4:02:00::'
p133
aS'particularly%4:02:00::'
p134
aS'peculiarly%4:02:02::'
p135
aS'specially%4:02:00::'
p136
asg7
I00
ssS'd004.s015.t020'
p137
(dp138
g4
(lp139
S'veterinary%3:01:00::'
p140
asg7
I00
ssS'd003.s019.t020'
p141
(dp142
g4
(lp143
S'barrier%1:09:00::'
p144
aS'roadblock%1:09:00::'
p145
asg7
I00
ssS'd004.s020.t013'
p146
(dp147
g4
(lp148
S'supportive%3:00:00::'
p149
asg7
I00
ssS'd004.s020.t014'
p150
(dp151
g4
(lp152
S'measure%1:04:01::'
p153
aS'step%1:04:02::'
p154
asg7
I00
ssS'd004.s015.t024'
p155
(dp156
g4
(lp157
S'european%3:01:00::'
p158
asg7
I00
ssS'd003.s019.t024'
p159
(dp160
g4
(lp161
S'aged%5:00:01:old:02'
p162
aS'elderly%5:00:00:old:02'
p163
aS'old%3:00:02::'
p164
aS'old%5:00:00:experienced:00'
p165
aS'older%5:00:00:experienced:00'
p166
aS'older%5:00:00:old:02'
p167
aS'senior%5:00:00:old:02'
p168
asg7
I00
ssS'd003.s019.t025'
p169
(dp170
g4
(lp171
S'worker%1:18:00::'
p172
asg7
I00
ssS'd004.s020.t018'
p173
(dp174
g4
(lp175
S'therapy%1:04:00::'
p176
asg7
I00
ssS'd003.s013.t012'
p177
(dp178
g4
(lp179
S'encroachment%1:04:02::'
p180
aS'impact%1:04:00::'
p181
aS'impact%1:19:00::'
p182
aS'impingement%1:04:00::'
p183
aS'wallop%1:19:00::'
p184
asg7
I00
ssS'd003.s013.t015'
p185
(dp186
g4
(lp187
S'pattern%1:04:00::'
p188
aS'pattern%1:09:01::'
p189
aS'practice%1:04:00::'
p190
asg7
I00
ssS'd003.s013.t014'
p191
(dp192
g4
(lp193
S'employment%1:04:02::'
p194
aS'engagement%1:04:02::'
p195
asg7
I00
ssS'd001.s010.t026'
p196
(dp197
g4
(lp198
S'malignant%3:00:02::'
p199
asg7
I00
ssS'd001.s010.t023'
p200
(dp201
g4
(lp202
S'alone%5:00:00:exclusive:00'
p203
aS'only%5:00:00:exclusive:00'
p204
asg7
I00
ssS'd003.s004.t003'
p205
(dp206
g4
(lp207
S'comparatively%4:02:00::'
p208
aS'relatively%4:02:00::'
p209
asg7
I00
ssS'd004.s022.t023'
p210
(dp211
g4
(lp212
S'time%1:28:00::'
p213
aS'time%1:28:05::'
p214
asg7
I00
ssS'd004.s022.t034'
p215
(dp216
g4
(lp217
S'intervention%1:04:02::'
p218
aS'treatment%1:04:00::'
p219
asg7
I00
ssS'd001.s010.t029'
p220
(dp221
g4
(lp222
S'propagate%2:35:06::'
p223
aS'spread%2:35:07::'
p224
asg7
I00
ssS'd002.s012.t013'
p225
(dp226
g4
(lp227
S'look%2:42:02::'
p228
asg7
I00
ssS'd003.s010.t007'
p229
(dp230
g4
(lp231
S'conference%1:14:00::'
p232
asg7
I00
ssS'd002.s012.t015'
p233
(dp234
g4
(lp235
S'alike%3:00:00::'
p236
aS'like%3:00:00::'
p237
aS'like%3:00:04::'
p238
aS'similar%3:00:00::'
p239
aS'similar%3:00:02::'
p240
aS'similar%3:00:04::'
p241
asg7
I00
ssS'd002.s012.t014'
p242
(dp243
g4
(lp244
S'rattling%4:02:00::'
p245
aS'real%4:02:01::'
p246
aS'really%4:02:00::'
p247
aS'very%4:02:00::'
p248
asg7
I00
ssS'd001.s013.t004'
p249
(dp250
g4
(lp251
S'apply%2:34:00::'
p252
aS'employ%2:34:00::'
p253
aS'habituate%2:34:00::'
p254
aS'use%2:34:01::'
p255
aS'use%2:34:02::'
p256
aS'utilise%2:34:00::'
p257
aS'utilize%2:34:00::'
p258
asg7
I00
ssS'd003.s004.t006'
p259
(dp260
g4
(lp261
S'report%2:32:01::'
p262
asg7
I00
ssS'd004.s022.t020'
p263
(dp264
g4
(lp265
S'drawn-out%5:00:00:long:02'
p266
aS'extended%5:00:00:long:02'
p267
aS'lengthy%5:00:00:long:02'
p268
aS'prolonged%5:00:00:long:02'
p269
aS'protracted%5:00:00:long:02'
p270
asg7
I00
ssS'd003.s009.t003'
p271
(dp272
g4
(lp273
S'industry%1:04:00::'
p274
aS'manufacture%1:04:00::'
p275
asg7
I01
ssS'd001.s032.t005'
p276
(dp277
g4
(lp278
S'time%1:28:00::'
p279
aS'times%1:28:01::'
p280
asg7
I00
ssS'd001.s032.t004'
p281
(dp282
g4
(lp283
S'endurance%1:26:00::'
p284
aS'survival%1:26:00::'
p285
asg7
I00
ssS'd001.s032.t007'
p286
(dp287
g4
(lp288
S'patient%1:18:00::'
p289
asg7
I00
ssS'd004.s015.t023'
p290
(dp291
g4
(lp292
S'several%5:00:00:some:00'
p293
asg7
I00
ssS'd001.s032.t002'
p294
(dp295
g4
(lp296
S'increase%2:30:02::'
p297
asg7
I00
ssS'd001.s001.t010'
p298
(dp299
g4
(lp300
S'assessment%1:04:00::'
p301
aS'judgement%1:04:02::'
p302
aS'judgment%1:04:02::'
p303
asg7
I00
ssS'd001.s032.t009'
p304
(dp305
g4
(lp306
S'mesothelioma%1:26:00::'
p307
asg7
I01
ssS'd004.s009.t007'
p308
(dp309
g4
(lp310
S'forbid%2:41:03::'
p311
aS'foreclose%2:41:00::'
p312
aS'forestall%2:41:01::'
p313
aS'keep%2:41:01::'
p314
aS'preclude%2:41:00::'
p315
aS'prevent%2:41:00::'
p316
aS'prevent%2:41:01::'
p317
asg7
I00
ssS'd001.s035.t005'
p318
(dp319
g4
(lp320
S'experience%2:39:00::'
p321
aS'get%2:39:00::'
p322
aS'have%2:39:06::'
p323
aS'receive%2:39:03::'
p324
asg7
I00
ssS'd003.s003.t018'
p325
(dp326
g4
(lp327
S'cardinal%5:00:00:important:00'
p328
aS'central%5:00:00:important:00'
p329
aS'fundamental%5:00:00:important:00'
p330
aS'key%5:00:00:important:00'
p331
aS'primal%5:00:00:important:00'
p332
asg7
I00
ssS'd003.s003.t019'
p333
(dp334
g4
(lp335
S'actor%1:18:01::'
p336
aS'doer%1:18:00::'
p337
aS'worker%1:18:02::'
p338
asg7
I00
ssS'd002.s003.t007'
p339
(dp340
g4
(lp341
S'cognise%2:31:00::'
p342
aS'cognize%2:31:00::'
p343
aS'know%2:31:00::'
p344
aS'know%2:31:01::'
p345
asg7
I00
ssS'd002.s003.t004'
p346
(dp347
g4
(lp348
S'non%4:02:00::'
p349
aS'not%4:02:00::'
p350
asg7
I00
ssS'd002.s003.t005'
p351
(dp352
g4
(lp353
S'necessary%3:00:00::'
p354
asg7
I00
ssS'd002.s045.t013'
p355
(dp356
g4
(lp357
S'able%3:00:00::'
p358
aS'able%5:00:00:competent:00'
p359
aS'capable%5:00:00:competent:00'
p360
asg7
I00
ssS'd002.s028.t010'
p361
(dp362
g4
(lp363
S'user%1:18:00::'
p364
asg7
I00
ssS'd003.s003.t012'
p365
(dp366
g4
(lp367
S'issue%1:09:00::'
p368
aS'issue%1:09:01::'
p369
aS'matter%1:09:00::'
p370
aS'subject%1:09:01::'
p371
aS'topic%1:09:00::'
p372
asg7
I00
ssS'd003.s006.t032'
p373
(dp374
g4
(lp375
S'challenge%1:26:00::'
p376
asg7
I00
ssS'd002.s037.t003'
p377
(dp378
g4
(lp379
S'log%1:10:02::'
p380
asg7
I00
ssS'd003.s009.t004'
p381
(dp382
g4
(lp383
S'sector%1:14:00::'
p384
asg7
I00
ssS'd002.s005.t011'
p385
(dp386
g4
(lp387
S'apply%2:34:00::'
p388
aS'employ%2:34:00::'
p389
aS'use%2:34:01::'
p390
aS'utilise%2:34:00::'
p391
aS'utilize%2:34:00::'
p392
asg7
I00
ssS'd002.s005.t017'
p393
(dp394
g4
(lp395
S'cognition%1:03:00::'
p396
aS'knowledge%1:03:00::'
p397
aS'noesis%1:03:00::'
p398
asg7
I00
ssS'd002.s005.t016'
p399
(dp400
g4
(lp401
S'mathematical%3:01:00::'
p402
asg7
I00
ssS'd002.s005.t015'
p403
(dp404
g4
(lp405
S'little%3:00:01::'
p406
aS'small%3:00:00::'
p407
asg7
I00
ssS'd001.s026.t005'
p408
(dp409
g4
(lp410
S'mesothelioma%1:26:00::'
p411
asg7
I01
ssS'd001.s026.t006'
p412
(dp413
g4
(lp414
S'pleural%3:01:00::'
p415
asg7
I00
ssS'd001.s026.t007'
p416
(dp417
g4
(lp418
S'mesothelioma%1:26:00::'
p419
asg7
I00
ssS'd001.s026.t003'
p420
(dp421
g4
(lp422
S'intervention%1:04:02::'
p423
aS'treatment%1:04:00::'
p424
asg7
I00
ssS'd002.s010.t024'
p425
(dp426
g4
(lp427
S'change%2:30:04::'
p428
aS'commute%2:30:02::'
p429
aS'convert%2:30:02::'
p430
aS'convert%2:30:03::'
p431
aS'exchange%2:30:00::'
p432
asg7
I00
ssS'd001.s009.t011'
p433
(dp434
g4
(lp435
S'pleural%3:01:00::'
p436
asg7
I00
ssS'd001.s009.t012'
p437
(dp438
g4
(lp439
S'mesothelioma%1:26:00::'
p440
asg7
I00
ssS'd002.s010.t021'
p441
(dp442
g4
(lp443
S'input%1:06:00::'
p444
asg7
I00
ssS'd001.s009.t017'
p445
(dp446
g4
(lp447
S'liner%1:06:02::'
p448
aS'lining%1:06:00::'
p449
asg7
I00
ssS'd001.s004.t017'
p450
(dp451
g4
(lp452
S'discourse%1:10:00::'
p453
aS'discussion%1:10:02::'
p454
aS'treatment%1:10:00::'
p455
asg7
I00
ssS'd001.s004.t016'
p456
(dp457
g4
(lp458
S'scientific%3:00:00::'
p459
aS'scientific%3:01:00::'
p460
asg7
I00
ssS'd001.s004.t014'
p461
(dp462
g4
(lp463
S'read%2:31:00::'
p464
asg7
I00
ssS'd001.s004.t012'
p465
(dp466
g4
(lp467
S'recommendation%1:10:00::'
p468
asg7
I00
ssS'd002.s024.t005'
p469
(dp470
g4
(lp471
S'condition%1:10:01::'
p472
aS'precondition%1:10:00::'
p473
aS'stipulation%1:10:00::'
p474
asg7
I00
ssS'd004.s013.t012'
p475
(dp476
g4
(lp477
S'act%2:41:00::'
p478
aS'move%2:41:00::'
p479
asg7
I00
ssS'd002.s024.t003'
p480
(dp481
g4
(lp482
S'enter%2:35:03::'
p483
aS'infix%2:35:01::'
p484
aS'insert%2:35:00::'
p485
aS'introduce%2:35:00::'
p486
asg7
I00
ssS'd001.s034.t015'
p487
(dp488
g4
(lp489
S'effective%3:00:00::'
p490
aS'effective%5:00:00:efficacious:00'
p491
aS'effectual%3:00:02::'
p492
aS'efficacious%3:00:02::'
p493
asg7
I00
ssS'd004.s004.t011'
p494
(dp495
g4
(lp496
S'lozenge%1:06:00::'
p497
aS'pill%1:06:00::'
p498
aS'tab%1:06:00::'
p499
aS'tablet%1:06:00::'
p500
asg7
I00
ssS'd004.s004.t016'
p501
(dp502
g4
(lp503
S'injection%1:04:01::'
p504
aS'shot%1:04:03::'
p505
asg7
I00
ssS'd003.s009.t007'
p506
(dp507
g4
(lp508
S'metalwork%1:04:00::'
p509
aS'metalworking%1:04:00::'
p510
asg7
I01
ssS'd004.s004.t014'
p511
(dp512
g4
(lp513
S'solution%1:27:00::'
p514
asg7
I00
ssS'd001.s027.t002'
p515
(dp516
g4
(lp517
S'effect%1:26:00::'
p518
asg7
I00
ssS'd001.s011.t012'
p519
(dp520
g4
(lp521
S'non%4:02:00::'
p522
aS'not%4:02:00::'
p523
asg7
I00
ssS'd003.s008.t020'
p524
(dp525
g4
(lp526
S'grade%1:26:00::'
p527
aS'level%1:26:01::'
p528
aS'tier%1:26:00::'
p529
asg7
I00
ssS'd003.s008.t024'
p530
(dp531
g4
(lp532
S'15%5:00:00:cardinal:00'
p533
aS'fifteen%5:00:00:cardinal:00'
p534
aS'xv%5:00:00:cardinal:00'
p535
asg7
I00
ssS'd003.s008.t025'
p536
(dp537
g4
(lp538
S'european%3:01:00::'
p539
asg7
I00
ssS'd003.s016.t023'
p540
(dp541
g4
(lp542
S'arrange%2:36:03::'
p543
aS'stage%2:36:01::'
p544
asg7
I00
ssS'd003.s016.t020'
p545
(dp546
g4
(lp547
S'conference%1:14:00::'
p548
asg7
I00
ssS'd002.s048.t032'
p549
(dp550
g4
(lp551
S'new%3:00:00::'
p552
aS'new%5:00:00:other:00'
p553
asg7
I00
ssS'd002.s048.t030'
p554
(dp555
g4
(lp556
S'add%2:30:00::'
p557
asg7
I00
ssS'd001.s017.t018'
p558
(dp559
g4
(lp560
S'vitamin%1:27:00::'
p561
asg7
I00
ssS'd001.s017.t016'
p562
(dp563
g4
(lp564
S'type%1:09:00::'
p565
asg7
I00
ssS'd001.s017.t013'
p566
(dp567
g4
(lp568
S'acid%1:27:00::'
p569
asg7
I00
ssS'd003.s006.t036'
p570
(dp571
g4
(lp572
S'service%1:04:08::'
p573
aS'services%1:04:00::'
p574
asg7
I00
ssS'd001.s025.t005'
p575
(dp576
g4
(lp577
S'analyse%2:31:00::'
p578
aS'analyze%2:31:00::'
p579
aS'canvas%2:31:02::'
p580
aS'canvass%2:31:02::'
p581
aS'examine%2:31:00::'
p582
aS'study%2:31:02::'
p583
asg7
I00
ssS'd002.s042.t015'
p584
(dp585
g4
(lp586
S'recycle%2:34:00::'
p587
aS'reprocess%2:34:00::'
p588
aS'reuse%2:34:00::'
p589
asg7
I00
ssS'd002.s042.t013'
p590
(dp591
g4
(lp592
S'able%3:00:00::'
p593
aS'able%5:00:00:competent:00'
p594
aS'capable%5:00:00:competent:00'
p595
asg7
I00
ssS'd002.s042.t010'
p596
(dp597
g4
(lp598
S'begin%2:42:02::'
p599
asg7
I00
ssS'd004.s001.t010'
p600
(dp601
g4
(lp602
S'appraisal%1:09:00::'
p603
aS'assessment%1:09:00::'
p604
asg7
I00
ssS'd001.s024.t011'
p605
(dp606
g4
(lp607
S'form%1:07:03::'
p608
asg7
I00
ssS'd001.s024.t010'
p609
(dp610
g4
(lp611
S'active%3:00:02::'
p612
aS'active%3:00:07::'
p613
asg7
I00
ssS'd001.s024.t013'
p614
(dp615
g4
(lp616
S'block%2:41:01::'
p617
aS'halt%2:41:00::'
p618
aS'kibosh%2:41:00::'
p619
aS'stop%2:41:00::'
p620
asg7
I00
ssS'd002.s046.t002'
p621
(dp622
g4
(lp623
S'q%1:10:00::'
p624
asg7
I00
ssS'd001.s029.t031'
p625
(dp626
g4
(lp627
S'lung%1:08:00::'
p628
asg7
I00
ssS'd001.s024.t018'
p629
(dp630
g4
(lp631
S'enzyme%1:27:00::'
p632
asg7
I00
ssS'd001.s019.t014'
p633
(dp634
g4
(lp635
S'patient%1:18:00::'
p636
asg7
I00
ssS'd001.s019.t017'
p637
(dp638
g4
(lp639
S'count%1:23:00::'
p640
asg7
I00
ssS'd001.s019.t016'
p641
(dp642
g4
(lp643
S'blood%1:08:00::'
p644
asg7
I00
ssS'd004.s018.t012'
p645
(dp646
g4
(lp647
S'injection%1:04:01::'
p648
aS'shot%1:04:03::'
p649
asg7
I00
ssS'd002.s018.t006'
p650
(dp651
g4
(lp652
S'apply%2:34:00::'
p653
aS'employ%2:34:00::'
p654
aS'use%2:34:01::'
p655
aS'utilise%2:34:00::'
p656
aS'utilize%2:34:00::'
p657
asg7
I00
ssS'd004.s005.t008'
p658
(dp659
g4
(lp660
S'score%1:25:00::'
p661
aS'scotch%1:25:00::'
p662
asg7
I00
ssS'd004.s018.t015'
p663
(dp664
g4
(lp665
S'disgorgement%1:04:00::'
p666
aS'emesis%1:04:00::'
p667
aS'puking%1:04:00::'
p668
aS'regurgitation%1:04:00::'
p669
aS'vomit%1:04:00::'
p670
aS'vomiting%1:04:00::'
p671
asg7
I00
ssS'd002.s004.t005'
p672
(dp673
g4
(lp674
S'base%2:31:00::'
p675
aS'establish%2:31:03::'
p676
aS'found%2:31:00::'
p677
aS'ground%2:31:00::'
p678
asg7
I00
ssS'd003.s015.t003'
p679
(dp680
g4
(lp681
S'study%1:04:00::'
p682
aS'survey%1:04:02::'
p683
asg7
I00
ssS'd003.s015.t005'
p684
(dp685
g4
(lp686
S'constitute%2:42:03::'
p687
aS'form%2:42:00::'
p688
aS'make%2:42:05::'
p689
asg7
I00
ssS'd003.s015.t007'
p690
(dp691
g4
(lp692
S'base%1:24:00::'
p693
aS'basis%1:24:01::'
p694
asg7
I00
ssS'd004.s020.t016'
p695
(dp696
g4
(lp697
S'other%3:00:00::'
p698
asg7
I00
ssS'd001.s003.t016'
p699
(dp700
g4
(lp701
S'bundle%1:14:00::'
p702
aS'package%1:06:00::'
p703
aS'package%1:14:00::'
p704
aS'packet%1:14:00::'
p705
aS'parcel%1:06:00::'
p706
aS'parcel%1:14:00::'
p707
asg7
I00
ssS'd001.s003.t017'
p708
(dp709
g4
(lp710
S'booklet%1:10:00::'
p711
aS'brochure%1:10:00::'
p712
aS'folder%1:10:00::'
p713
aS'leaflet%1:10:00::'
p714
aS'pamphlet%1:10:01::'
p715
asg7
I00
ssS'd001.s003.t014'
p716
(dp717
g4
(lp718
S'read%2:31:00::'
p719
asg7
I00
ssS'd004.s020.t017'
p720
(dp721
g4
(lp722
S'veterinary%3:01:00::'
p723
asg7
I00
ssS'd001.s003.t012'
p724
(dp725
g4
(lp726
S'intervention%1:04:02::'
p727
aS'treatment%1:04:00::'
p728
asg7
I00
ssS'd003.s019.t019'
p729
(dp730
g4
(lp731
S'age%1:07:00::'
p732
asg7
I00
ssS'd004.s022.t016'
p733
(dp734
g4
(lp735
S'advocate%2:32:00::'
p736
aS'recommend%2:32:01::'
p737
aS'urge%2:32:03::'
p738
asg7
I00
ssS'd001.s030.t007'
p739
(dp740
g4
(lp741
S'chief%5:00:02:important:00'
p742
aS'main%5:00:00:important:00'
p743
aS'master%5:00:00:important:00'
p744
aS'primary%5:00:00:important:00'
p745
aS'principal%5:00:00:important:00'
p746
asg7
I00
ssS'd004.s022.t014'
p747
(dp748
g4
(lp749
S'clip%1:11:00::'
p750
aS'time%1:11:00::'
p751
asg7
I00
ssS'd002.s009.t006'
p752
(dp753
g4
(lp754
S'detect%2:39:00::'
p755
aS'discover%2:39:03::'
p756
aS'find%2:39:02::'
p757
aS'notice%2:39:04::'
p758
aS'observe%2:39:02::'
p759
asg7
I00
ssS'd002.s010.t003'
p760
(dp761
g4
(lp762
S'desire%2:37:00::'
p763
aS'want%2:37:00::'
p764
asg7
I00
ssS'd002.s009.t008'
p765
(dp766
g4
(lp767
S'input%1:06:00::'
p768
asg7
I00
ssS'd002.s009.t009'
p769
(dp770
g4
(lp771
S'field%1:14:03::'
p772
asg7
I00
ssS'd001.s031.t008'
p773
(dp774
g4
(lp775
S'study%1:04:00::'
p776
aS'survey%1:04:02::'
p777
asg7
I00
ssS'd003.s006.t016'
p778
(dp779
g4
(lp780
S'affairs%1:04:00::'
p781
asg7
I00
ssS'd003.s006.t015'
p782
(dp783
g4
(lp784
S'social%3:01:00::'
p785
aS'societal%3:01:00::'
p786
asg7
I00
ssS'd001.s002.t002'
p787
(dp788
g4
(lp789
S'explain%2:32:00::'
p790
aS'explain%2:32:01::'
p791
aS'explicate%2:32:00::'
p792
asg7
I00
ssS'd001.s002.t007'
p793
(dp794
g4
(lp795
S'medicative%5:00:00:healthful:00'
p796
aS'medicinal%5:00:00:healthful:00'
p797
asg7
I00
ssS'd001.s002.t005'
p798
(dp799
g4
(lp800
S'commission%1:14:00::'
p801
aS'committee%1:14:00::'
p802
asg7
I00
ssS'd002.s033.t009'
p803
(dp804
g4
(lp805
S'variable%1:10:00::'
p806
asg7
I00
ssS'd001.s002.t008'
p807
(dp808
g4
(lp809
S'product%1:06:00::'
p810
aS'production%1:06:00::'
p811
asg7
I00
ssS'd003.s010.t054'
p812
(dp813
g4
(lp814
S'parliament%1:14:00::'
p815
asg7
I00
ssS'd004.s023.t004'
p816
(dp817
g4
(lp818
S'guard%1:04:03::'
p819
aS'precaution%1:04:00::'
p820
aS'safeguard%1:04:00::'
p821
asg7
I00
ssS'd003.s010.t053'
p822
(dp823
g4
(lp824
S'european%3:01:00::'
p825
asg7
I00
ssS'd004.s010.t035'
p826
(dp827
g4
(lp828
S'lozenge%1:06:00::'
p829
aS'pill%1:06:00::'
p830
aS'tab%1:06:00::'
p831
aS'tablet%1:06:00::'
p832
asg7
I00
ssS'd003.s010.t059'
p833
(dp834
g4
(lp835
S'economic%3:01:01::'
p836
aS'economical%3:01:00::'
p837
asg7
I00
ssS'd002.s031.t012'
p838
(dp839
g4
(lp840
S'operator%1:24:00::'
p841
asg7
I00
ssS'd001.s030.t010'
p842
(dp843
g4
(lp844
S'effectiveness%1:07:00::'
p845
aS'effectiveness%1:07:01::'
p846
aS'effectivity%1:07:00::'
p847
aS'effectuality%1:07:00::'
p848
aS'effectualness%1:07:00::'
p849
aS'potency%1:07:00::'
p850
aS'strength%1:07:08::'
p851
asg7
I00
ssS'd001.s030.t013'
p852
(dp853
g4
(lp854
S'long%4:02:00::'
p855
asg7
I00
ssS'd001.s030.t015'
p856
(dp857
g4
(lp858
S'patient%1:18:00::'
p859
asg7
I00
ssS'd002.s008.t003'
p860
(dp861
g4
(lp862
S'window%1:06:03::'
p863
asg7
I00
ssS'd002.s008.t002'
p864
(dp865
g4
(lp866
S'chief%5:00:02:important:00'
p867
aS'main%5:00:00:important:00'
p868
aS'master%5:00:00:important:00'
p869
aS'primary%5:00:00:important:00'
p870
aS'principal%5:00:00:important:00'
p871
asg7
I00
ssS'd002.s008.t004'
p872
(dp873
g4
(lp874
S'comprise%2:42:01::'
p875
aS'consist%2:42:01::'
p876
asg7
I00
ssS'd003.s014.t003'
p877
(dp878
g4
(lp879
S'interview%1:10:01::'
p880
asg7
I00
ssS'd003.s020.t004'
p881
(dp882
g4
(lp883
S'early%3:00:00::'
p884
asg7
I00
ssS'd003.s014.t001'
p885
(dp886
g4
(lp887
S'visit%1:04:01::'
p888
asg7
I00
ssS'd003.s014.t006'
p889
(dp890
g4
(lp891
S'force%1:14:00::'
p892
aS'personnel%1:14:00::'
p893
asg7
I00
ssS'd002.s054.t003'
p894
(dp895
g4
(lp896
S'lay%2:35:01::'
p897
aS'place%2:35:00::'
p898
aS'pose%2:35:02::'
p899
aS'position%2:35:00::'
p900
aS'put%2:35:00::'
p901
aS'set%2:35:00::'
p902
asg7
I00
ssS'd002.s019.t005'
p903
(dp904
g4
(lp905
S'parser%1:10:00::'
p906
asg7
I00
ssS'd003.s020.t005'
p907
(dp908
g4
(lp909
S'retirement%1:26:00::'
p910
asg7
I00
ssS'd003.s020.t007'
p911
(dp912
g4
(lp913
S'redundance%1:07:00::'
p914
aS'redundancy%1:07:00::'
p915
asg7
I00
ssS'd003.s020.t002'
p916
(dp917
g4
(lp918
S'alternative%1:09:00::'
p919
aS'choice%1:09:02::'
p920
aS'option%1:09:00::'
p921
asg7
I00
ssS'd003.s016.t025'
p922
(dp923
g4
(lp924
S'autumn%1:28:00::'
p925
aS'fall%1:28:00::'
p926
asg7
I00
ssS'd001.s014.t005'
p927
(dp928
g4
(lp929
S'give%2:40:13::'
p930
asg7
I00
ssS'd003.s010.t005'
p931
(dp932
g4
(lp933
S'marginalisation%1:22:00::'
p934
aS'marginalization%1:22:00::'
p935
asg7
I01
ssS'd001.s014.t008'
p936
(dp937
g4
(lp938
S'oversight%1:04:01::'
p939
aS'superintendence%1:04:00::'
p940
aS'supervising%1:04:00::'
p941
aS'supervision%1:04:00::'
p942
asg7
I00
ssS'd001.s010.t069'
p943
(dp944
g4
(lp945
S'affect%2:29:00::'
p946
asg7
I00
ssS'd001.s010.t068'
p947
(dp948
g4
(lp949
S'non%4:02:00::'
p950
aS'not%4:02:00::'
p951
asg7
I00
ssS'd002.s002.t011'
p952
(dp953
g4
(lp954
S'arithmetic%3:01:00::'
p955
aS'arithmetical%3:01:00::'
p956
asg7
I00
ssS'd001.s010.t063'
p957
(dp958
g4
(lp959
S'cell%1:03:00::'
p960
asg7
I00
ssS'd001.s010.t061'
p961
(dp962
g4
(lp963
S'metastatic%3:01:00::'
p964
asg7
I00
ssS'd001.s033.t012'
p965
(dp966
g4
(lp967
S'month%1:28:00::'
p968
asg7
I00
ssS'd001.s033.t014'
p969
(dp970
g4
(lp971
S'compare%2:31:00::'
p972
asg7
I00
ssS'd001.s033.t017'
p973
(dp974
g4
(lp975
S'month%1:28:00::'
p976
asg7
I00
ssS'd001.s010.t064'
p977
(dp978
g4
(lp979
S'lung%1:08:00::'
p980
asg7
I00
ssS'd002.s049.t005'
p981
(dp982
g4
(lp983
S'go%2:30:02::'
p984
aS'move%2:30:01::'
p985
aS'run%2:30:02::'
p986
asg7
I01
ssS'd001.s017.t025'
p987
(dp988
g4
(lp989
S'vitamin%1:27:00::'
p990
asg7
I00
ssS'd001.s017.t023'
p991
(dp992
g4
(lp993
S'injectant%1:27:00::'
p994
aS'injection%1:04:01::'
p995
aS'injection%1:27:00::'
p996
aS'shot%1:04:03::'
p997
asg7
I00
ssS'd002.s049.t008'
p998
(dp999
g4
(lp1000
S'input%1:06:00::'
p1001
asg7
I00
ssS'd001.s017.t028'
p1002
(dp1003
g4
(lp1004
S'intervention%1:04:02::'
p1005
aS'treatment%1:04:00::'
p1006
asg7
I00
ssS'd003.s004.t026'
p1007
(dp1008
g4
(lp1009
S'common%5:00:00:familiar:02'
p1010
aS'usual%5:00:00:familiar:02'
p1011
asg7
I00
ssS'd003.s004.t020'
p1012
(dp1013
g4
(lp1014
S'provision%1:04:01::'
p1015
aS'supply%1:04:00::'
p1016
aS'supplying%1:04:00::'
p1017
asg7
I00
ssS'd001.s021.t003'
p1018
(dp1019
g4
(lp1020
S'data%1:14:00::'
p1021
aS'information%1:09:00::'
p1022
aS'information%1:14:00::'
p1023
asg7
I00
ssS'd004.s006.t008'
p1024
(dp1025
g4
(lp1026
S'logo%1:10:00::'
p1027
aS'logotype%1:10:00::'
p1028
asg7
I00
ssS'd001.s021.t005'
p1029
(dp1030
g4
(lp1031
S'examine%2:39:00::'
p1032
aS'see%2:39:13::'
p1033
asg7
I00
ssS'd001.s021.t007'
p1034
(dp1035
g4
(lp1036
S'sum-up%1:10:00::'
p1037
aS'summary%1:10:00::'
p1038
asg7
I00
ssS'd004.s020.t012'
p1039
(dp1040
g4
(lp1041
S'other%3:00:00::'
p1042
asg7
I00
ssS'd001.s021.t009'
p1043
(dp1044
g4
(lp1045
S'product%1:06:00::'
p1046
aS'production%1:06:00::'
p1047
asg7
I00
ssS'd004.s006.t002'
p1048
(dp1049
g4
(lp1050
S'lozenge%1:06:00::'
p1051
aS'pill%1:06:00::'
p1052
aS'tab%1:06:00::'
p1053
aS'tablet%1:06:00::'
p1054
asg7
I00
ssS'd004.s006.t004'
p1055
(dp1056
g4
(lp1057
S'mark%2:35:01::'
p1058
aS'nock%2:35:00::'
p1059
aS'score%2:35:00::'
p1060
asg7
I00
ssS'd001.s023.t018'
p1061
(dp1062
g4
(lp1063
S'cell%1:03:00::'
p1064
asg7
I00
ssS'd004.s018.t018'
p1065
(dp1066
g4
(lp1067
S'non%4:02:00::'
p1068
aS'not%4:02:00::'
p1069
asg7
I00
ssS'd003.s017.t009'
p1070
(dp1071
g4
(lp1072
S'age%1:07:00::'
p1073
asg7
I00
ssS'd003.s018.t010'
p1074
(dp1075
g4
(lp1076
S'analyse%2:31:00::'
p1077
aS'analyze%2:31:00::'
p1078
aS'canvas%2:31:02::'
p1079
aS'canvass%2:31:02::'
p1080
aS'examine%2:31:00::'
p1081
aS'examine%2:32:01::'
p1082
aS'probe%2:32:00::'
p1083
aS'study%2:31:02::'
p1084
asg7
I00
ssS'd003.s017.t007'
p1085
(dp1086
g4
(lp1087
S'characteristic%1:07:00::'
p1088
aS'characteristic%1:09:00::'
p1089
aS'feature%1:09:00::'
p1090
asg7
I00
ssS'd001.s023.t017'
p1091
(dp1092
g4
(lp1093
S'kill%2:35:00::'
p1094
asg7
I00
ssS'd003.s017.t002'
p1095
(dp1096
g4
(lp1097
S'foundation%1:14:00::'
p1098
asg7
I00
ssS'd001.s023.t011'
p1099
(dp1100
g4
(lp1101
S'cytotoxic%3:01:00::'
p1102
asg7
I00
ssS'd003.s018.t017'
p1103
(dp1104
g4
(lp1105
S'proposal%1:10:00::'
p1106
asg7
I00
ssS'd003.s010.t002'
p1107
(dp1108
g4
(lp1109
S'speaker%1:18:00::'
p1110
aS'talker%1:18:00::'
p1111
aS'utterer%1:18:00::'
p1112
aS'verbaliser%1:18:00::'
p1113
aS'verbalizer%1:18:00::'
p1114
asg7
I00
ssS'd003.s002.t002'
p1115
(dp1116
g4
(lp1117
S'foundation%1:14:00::'
p1118
asg7
I00
ssS'd003.s023.t008'
p1119
(dp1120
g4
(lp1121
S'project%1:09:00::'
p1122
aS'projection%1:09:00::'
p1123
asg7
I00
ssS'd003.s002.t006'
p1124
(dp1125
g4
(lp1126
S'involve%2:42:04::'
p1127
asg7
I00
ssS'd003.s002.t008'
p1128
(dp1129
g4
(lp1130
S'organise%2:41:00::'
p1131
aS'organize%2:41:00::'
p1132
asg7
I00
ssS'd004.s010.t010'
p1133
(dp1134
g4
(lp1135
S'intervention%1:04:02::'
p1136
aS'treatment%1:04:00::'
p1137
asg7
I00
ssS'd003.s023.t002'
p1138
(dp1139
g4
(lp1140
S'member%1:14:00::'
p1141
asg7
I00
ssS'd004.s009.t003'
p1142
(dp1143
g4
(lp1144
S'apply%2:34:00::'
p1145
aS'employ%2:34:00::'
p1146
aS'habituate%2:34:00::'
p1147
aS'use%2:34:01::'
p1148
aS'use%2:34:02::'
p1149
aS'utilise%2:34:00::'
p1150
aS'utilize%2:34:00::'
p1151
asg7
I00
ssS'd003.s011.t018'
p1152
(dp1153
g4
(lp1154
S'policy%1:09:00::'
p1155
asg7
I00
ssS'd003.s022.t011'
p1156
(dp1157
g4
(lp1158
S'rural%3:01:01::'
p1159
asg7
I00
ssS'd001.s015.t014'
p1160
(dp1161
g4
(lp1162
S'surface%1:15:00::'
p1163
asg7
I00
ssS'd003.s022.t012'
p1164
(dp1165
g4
(lp1166
S'area%1:15:01::'
p1167
aS'country%1:15:02::'
p1168
asg7
I00
ssS'd001.s015.t011'
p1169
(dp1170
g4
(lp1171
S'm%1:23:00::'
p1172
aS'meter%1:23:00::'
p1173
aS'metre%1:23:00::'
p1174
asg7
I00
ssS'd003.s022.t019'
p1175
(dp1176
g4
(lp1177
S'company%1:14:01::'
p1178
aS'corp%1:14:00::'
p1179
aS'corporation%1:14:00::'
p1180
aS'enterprise%1:14:00::'
p1181
asg7
I00
ssS'd003.s007.t027'
p1182
(dp1183
g4
(lp1184
S'gainfulness%1:07:00::'
p1185
aS'lucrativeness%1:07:00::'
p1186
aS'profitability%1:07:00::'
p1187
aS'profitableness%1:07:00::'
p1188
asg7
I00
ssS'd003.s007.t026'
p1189
(dp1190
g4
(lp1191
S'increase%2:30:02::'
p1192
asg7
I00
ssS'd003.s007.t021'
p1193
(dp1194
g4
(lp1195
S'engagement%1:04:00::'
p1196
aS'involution%1:04:02::'
p1197
aS'involvement%1:04:00::'
p1198
aS'participation%1:04:00::'
p1199
asg7
I00
ssS'd001.s015.t018'
p1200
(dp1201
g4
(lp1202
S'apply%2:34:00::'
p1203
aS'employ%2:34:00::'
p1204
aS'use%2:34:01::'
p1205
aS'utilise%2:34:00::'
p1206
aS'utilize%2:34:00::'
p1207
asg7
I00
ssS'd002.s050.t013'
p1208
(dp1209
g4
(lp1210
S'necessary%3:00:00::'
p1211
asg7
I00
ssS'd002.s050.t012'
p1212
(dp1213
g4
(lp1214
S'non%4:02:00::'
p1215
aS'not%4:02:00::'
p1216
asg7
I00
ssS'd003.s016.t015'
p1217
(dp1218
g4
(lp1219
S'cater%2:34:00::'
p1220
aS'ply%2:34:00::'
p1221
aS'provide%2:34:00::'
p1222
aS'supply%2:34:00::'
p1223
asg7
I00
ssS'd002.s043.t011'
p1224
(dp1225
g4
(lp1226
S'apply%2:34:00::'
p1227
aS'employ%2:34:00::'
p1228
aS'use%2:34:01::'
p1229
aS'utilise%2:34:00::'
p1230
aS'utilize%2:34:00::'
p1231
asg7
I00
ssS'd004.s017.t023'
p1232
(dp1233
g4
(lp1234
S'experience%2:39:00::'
p1235
aS'get%2:39:00::'
p1236
aS'have%2:39:06::'
p1237
aS'receive%2:39:03::'
p1238
asg7
I00
ssS'd004.s002.t018'
p1239
(dp1240
g4
(lp1241
S'do%2:36:01::'
p1242
aS'execute%2:36:01::'
p1243
aS'perform%2:36:00::'
p1244
asg7
I00
ssS'd001.s007.t002'
p1245
(dp1246
g4
(lp1247
S'comprise%2:42:00::'
p1248
aS'contain%2:42:00::'
p1249
aS'incorporate%2:42:00::'
p1250
asg7
I00
ssS'd001.s007.t005'
p1251
(dp1252
g4
(lp1253
S'substance%1:03:01::'
p1254
aS'substance%1:27:00::'
p1255
asg7
I00
ssS'd002.s034.t016'
p1256
(dp1257
g4
(lp1258
S'value%1:09:00::'
p1259
asg7
I00
ssS'd002.s034.t014'
p1260
(dp1261
g4
(lp1262
S'alter%2:30:01::'
p1263
aS'change%2:30:01::'
p1264
aS'modify%2:30:10::'
p1265
asg7
I00
ssS'd001.s028.t028'
p1266
(dp1267
g4
(lp1268
S'involve%2:42:04::'
p1269
asg7
I00
ssS'd001.s020.t014'
p1270
(dp1271
g4
(lp1272
S'job%1:26:00::'
p1273
aS'problem%1:26:00::'
p1274
asg7
I00
ssS'd004.s015.t018'
p1275
(dp1276
g4
(lp1277
S'patient%1:18:00::'
p1278
asg7
I00
ssS'd001.s020.t010'
p1279
(dp1280
g4
(lp1281
S'moderate%3:00:00::'
p1282
asg7
I00
ssS'd001.s020.t013'
p1283
(dp1284
g4
(lp1285
S'kidney%1:08:00::'
p1286
asg7
I00
ssS'd001.s020.t012'
p1287
(dp1288
g4
(lp1289
S'severe%5:00:01:bad:00'
p1290
asg7
I00
ssS'd004.s020.t006'
p1291
(dp1292
g4
(lp1293
S'disgorgement%1:04:00::'
p1294
aS'emesis%1:04:00::'
p1295
aS'puking%1:04:00::'
p1296
aS'regurgitation%1:04:00::'
p1297
aS'vomit%1:04:00::'
p1298
aS'vomiting%1:04:00::'
p1299
asg7
I00
ssS'd001.s028.t022'
p1300
(dp1301
g4
(lp1302
S'anticancer%3:01:00::'
p1303
aS'antineoplastic%3:01:00::'
p1304
aS'antitumor%3:01:00::'
p1305
aS'antitumour%3:01:00::'
p1306
asg7
I00
ssS'd004.s020.t004'
p1307
(dp1308
g4
(lp1309
S'intervention%1:04:02::'
p1310
aS'treatment%1:04:00::'
p1311
asg7
I00
ssS'd001.s028.t027'
p1312
(dp1313
g4
(lp1314
S'study%1:04:00::'
p1315
aS'survey%1:04:02::'
p1316
asg7
I00
ssS'd003.s013.t024'
p1317
(dp1318
g4
(lp1319
S'job%1:26:00::'
p1320
aS'problem%1:26:00::'
p1321
asg7
I00
ssS'd003.s013.t020'
p1322
(dp1323
g4
(lp1324
S'appraise%2:31:01::'
p1325
aS'assess%2:31:00::'
p1326
aS'evaluate%2:31:00::'
p1327
aS'measure%2:31:01::'
p1328
aS'valuate%2:31:00::'
p1329
aS'value%2:31:00::'
p1330
asg7
I00
ssS'd003.s013.t022'
p1331
(dp1332
g4
(lp1333
S'gain%1:07:02::'
p1334
aS'profit%1:07:00::'
p1335
asg7
I00
ssS'd004.s018.t020'
p1336
(dp1337
g4
(lp1338
S'able%3:00:00::'
p1339
aS'able%5:00:00:capable:00'
p1340
asg7
I00
ssS'd001.s037.t012'
p1341
(dp1342
g4
(lp1343
S'affect%2:29:00::'
p1344
asg7
I00
ssS'd004.s018.t024'
p1345
(dp1346
g4
(lp1347
S'lozenge%1:06:00::'
p1348
aS'pill%1:06:00::'
p1349
aS'tab%1:06:00::'
p1350
aS'tablet%1:06:00::'
p1351
asg7
I00
ssS'd003.s006.t009'
p1352
(dp1353
g4
(lp1354
S'commission%1:14:00::'
p1355
aS'commission%1:14:01::'
p1356
aS'committee%1:14:00::'
p1357
aS'delegacy%1:14:00::'
p1358
aS'delegation%1:14:00::'
p1359
aS'deputation%1:14:00::'
p1360
aS'mission%1:14:00::'
p1361
asg7
I00
ssS'd001.s010.t052'
p1362
(dp1363
g4
(lp1364
S'chemotherapy%1:04:00::'
p1365
asg7
I00
ssS'd003.s003.t021'
p1366
(dp1367
g4
(lp1368
S'public%3:00:00::'
p1369
aS'public%5:00:00:common:02'
p1370
asg7
I00
ssS'd001.s010.t050'
p1371
(dp1372
g4
(lp1373
S'non%4:02:00::'
p1374
aS'not%4:02:00::'
p1375
asg7
I00
ssS'd001.s010.t051'
p1376
(dp1377
g4
(lp1378
S'experience%2:39:00::'
p1379
aS'get%2:39:00::'
p1380
aS'have%2:39:06::'
p1381
aS'receive%2:39:03::'
p1382
asg7
I00
ssS'd002.s034.t012'
p1383
(dp1384
g4
(lp1385
S'allow%2:41:00::'
p1386
aS'let%2:41:00::'
p1387
aS'permit%2:41:00::'
p1388
asg7
I00
ssS'd003.s003.t020'
p1389
(dp1390
g4
(lp1391
S'include%2:30:00::'
p1392
aS'include%2:31:00::'
p1393
aS'include%2:42:00::'
p1394
asg7
I00
ssS'd001.s010.t059'
p1395
(dp1396
g4
(lp1397
S'advanced%5:00:00:late:02'
p1398
asg7
I00
ssS'd003.s010.t026'
p1399
(dp1400
g4
(lp1401
S'european%3:01:00::'
p1402
asg7
I00
ssS'd003.s007.t017'
p1403
(dp1404
g4
(lp1405
S'extent%1:26:00::'
p1406
asg7
I00
ssS'd001.s034.t009'
p1407
(dp1408
g4
(lp1409
S'lung%1:08:00::'
p1410
asg7
I00
ssS'd004.s009.t017'
p1411
(dp1412
g4
(lp1413
S'apply%2:34:00::'
p1414
aS'employ%2:34:00::'
p1415
aS'habituate%2:34:00::'
p1416
aS'use%2:34:01::'
p1417
aS'use%2:34:02::'
p1418
aS'utilise%2:34:00::'
p1419
aS'utilize%2:34:00::'
p1420
asg7
I00
ssS'd003.s010.t020'
p1421
(dp1422
g4
(lp1423
S'dealings%1:24:00::'
p1424
aS'relations%1:24:00::'
p1425
asg7
I00
ssS'd001.s001.t005'
p1426
(dp1427
g4
(lp1428
S'sum-up%1:10:00::'
p1429
aS'summary%1:10:00::'
p1430
asg7
I00
ssS'd001.s011.t027'
p1431
(dp1432
g4
(lp1433
S'type%1:09:00::'
p1434
asg7
I00
ssS'd003.s006.t027'
p1435
(dp1436
g4
(lp1437
S'marginalisation%1:22:00::'
p1438
aS'marginalization%1:22:00::'
p1439
asg7
I01
ssS'd003.s006.t024'
p1440
(dp1441
g4
(lp1442
S'european%3:01:00::'
p1443
asg7
I00
ssS'd003.s006.t025'
p1444
(dp1445
g4
(lp1446
S'conference%1:14:00::'
p1447
asg7
I00
ssS'd003.s006.t028'
p1448
(dp1449
g4
(lp1450
S'exclusion%1:26:00::'
p1451
asg7
I00
ssS'd003.s010.t022'
p1452
(dp1453
g4
(lp1454
S'social%3:01:00::'
p1455
aS'societal%3:01:00::'
p1456
asg7
I00
ssS'd002.s029.t003'
p1457
(dp1458
g4
(lp1459
S'easy%3:00:01::'
p1460
asg7
I00
ssS'd001.s001.t009'
p1461
(dp1462
g4
(lp1463
S'public%3:00:00::'
p1464
asg7
I00
ssS'd001.s001.t008'
p1465
(dp1466
g4
(lp1467
S'european%3:01:00::'
p1468
asg7
I00
ssS'd003.s003.t029'
p1469
(dp1470
g4
(lp1471
S'community%1:14:00::'
p1472
asg7
I00
ssS'd003.s003.t003'
p1473
(dp1474
g4
(lp1475
S'participant%1:18:00::'
p1476
asg7
I00
ssS'd003.s010.t006'
p1477
(dp1478
g4
(lp1479
S'exclusion%1:26:00::'
p1480
asg7
I00
ssS'd001.s035.t002'
p1481
(dp1482
g4
(lp1483
S'patient%1:18:00::'
p1484
asg7
I00
ssS'd002.s045.t015'
p1485
(dp1486
g4
(lp1487
S'impress%2:36:00::'
p1488
aS'print%2:36:00::'
p1489
asg7
I00
ssS'd002.s003.t010'
p1490
(dp1491
g4
(lp1492
S'apply%2:34:00::'
p1493
aS'employ%2:34:00::'
p1494
aS'use%2:34:01::'
p1495
aS'utilise%2:34:00::'
p1496
aS'utilize%2:34:00::'
p1497
asg7
I00
ssS'd001.s035.t006'
p1498
(dp1499
g4
(lp1500
S'chemotherapy%1:04:00::'
p1501
asg7
I00
ssS'd001.s026.t019'
p1502
(dp1503
g4
(lp1504
S'patient%1:18:00::'
p1505
asg7
I00
ssS'd004.s005.t002'
p1506
(dp1507
g4
(lp1508
S'lozenge%1:06:00::'
p1509
aS'pill%1:06:00::'
p1510
aS'tab%1:06:00::'
p1511
aS'tablet%1:06:00::'
p1512
asg7
I00
ssS'd003.s006.t020'
p1513
(dp1514
g4
(lp1515
S'regional%5:00:00:territorial:00'
p1516
asg7
I00
ssS'd001.s026.t012'
p1517
(dp1518
g4
(lp1519
S'analyse%2:31:00::'
p1520
aS'analyze%2:31:00::'
p1521
aS'canvas%2:31:02::'
p1522
aS'canvass%2:31:02::'
p1523
aS'examine%2:31:00::'
p1524
aS'study%2:31:02::'
p1525
asg7
I00
ssS'd001.s026.t016'
p1526
(dp1527
g4
(lp1528
S'study%1:04:00::'
p1529
aS'survey%1:04:02::'
p1530
asg7
I00
ssS'd001.s026.t015'
p1531
(dp1532
g4
(lp1533
S'chief%5:00:02:important:00'
p1534
aS'main%5:00:00:important:00'
p1535
aS'master%5:00:00:important:00'
p1536
aS'primary%5:00:00:important:00'
p1537
aS'principal%5:00:00:important:00'
p1538
asg7
I00
ssS'd004.s005.t009'
p1539
(dp1540
g4
(lp1541
S'crease%1:25:01::'
p1542
aS'crinkle%1:25:00::'
p1543
aS'furrow%1:25:00::'
p1544
aS'line%1:10:01::'
p1545
aS'line%1:25:01::'
p1546
aS'seam%1:25:01::'
p1547
aS'wrinkle%1:25:00::'
p1548
asg7
I00
ssS'd002.s011.t015'
p1549
(dp1550
g4
(lp1551
S'difficult%3:00:00::'
p1552
aS'hard%3:00:06::'
p1553
asg7
I00
ssS'd002.s011.t013'
p1554
(dp1555
g4
(lp1556
S'non%4:02:00::'
p1557
aS'not%4:02:00::'
p1558
asg7
I00
ssS'd001.s009.t007'
p1559
(dp1560
g4
(lp1561
S'type%1:09:00::'
p1562
asg7
I00
ssS'd001.s009.t003'
p1563
(dp1564
g4
(lp1565
S'apply%2:34:00::'
p1566
aS'employ%2:34:00::'
p1567
aS'habituate%2:34:00::'
p1568
aS'use%2:34:01::'
p1569
aS'use%2:34:02::'
p1570
aS'utilise%2:34:00::'
p1571
aS'utilize%2:34:00::'
p1572
asg7
I00
ssS'd003.s019.t016'
p1573
(dp1574
g4
(lp1575
S'sector%1:14:00::'
p1576
asg7
I00
ssS'd003.s003.t011'
p1577
(dp1578
g4
(lp1579
S'debate%2:31:00::'
p1580
aS'debate%2:32:00::'
p1581
aS'deliberate%2:32:00::'
p1582
asg7
I00
ssS'd002.s010.t033'
p1583
(dp1584
g4
(lp1585
S'cognise%2:31:00::'
p1586
aS'cognize%2:31:00::'
p1587
aS'know%2:31:00::'
p1588
aS'know%2:31:01::'
p1589
asg7
I00
ssS'd002.s010.t031'
p1590
(dp1591
g4
(lp1592
S'necessary%3:00:00::'
p1593
asg7
I00
ssS'd002.s010.t030'
p1594
(dp1595
g4
(lp1596
S'non%4:02:00::'
p1597
aS'not%4:02:00::'
p1598
asg7
I00
ssS'd002.s002.t001'
p1599
(dp1600
g4
(lp1601
S'now%4:02:00::'
p1602
aS'nowadays%4:02:00::'
p1603
aS'today%4:02:01::'
p1604
asg7
I00
ssS'd004.s017.t005'
p1605
(dp1606
g4
(lp1607
S'study%1:04:00::'
p1608
aS'survey%1:04:02::'
p1609
asg7
I00
ssS'd002.s002.t004'
p1610
(dp1611
g4
(lp1612
S'capable%3:00:00::'
p1613
asg7
I00
ssS'd002.s002.t007'
p1614
(dp1615
g4
(lp1616
S'elementary%5:00:00:easy:01'
p1617
aS'simple%5:00:00:easy:01'
p1618
aS'uncomplicated%5:00:00:easy:01'
p1619
aS'unproblematic%5:00:00:easy:01'
p1620
asg7
I00
ssS'd002.s002.t006'
p1621
(dp1622
g4
(lp1623
S'make%2:36:12::'
p1624
asg7
I00
ssS'd002.s030.t003'
p1625
(dp1626
g4
(lp1627
S'non%4:02:00::'
p1628
aS'not%4:02:00::'
p1629
asg7
I00
ssS'd002.s030.t004'
p1630
(dp1631
g4
(lp1632
S'count%2:42:00::'
p1633
aS'matter%2:42:00::'
p1634
aS'weigh%2:42:03::'
p1635
asg7
I00
ssS'd002.s030.t006'
p1636
(dp1637
g4
(lp1638
S'form%1:09:01::'
p1639
aS'kind%1:09:00::'
p1640
aS'sort%1:09:00::'
p1641
aS'variety%1:09:01::'
p1642
asg7
I00
ssS'd002.s024.t034'
p1643
(dp1644
g4
(lp1645
S'final%5:00:00:ultimate:00'
p1646
aS'last%3:00:00::'
p1647
aS'last%5:00:00:ultimate:00'
p1648
aS'net%5:00:00:ultimate:00'
p1649
asg7
I00
ssS'd002.s024.t035'
p1650
(dp1651
g4
(lp1652
S'case%1:11:00::'
p1653
aS'example%1:11:00::'
p1654
aS'instance%1:11:00::'
p1655
aS'object%1:09:02::'
p1656
asg7
I00
ssS'd001.s034.t003'
p1657
(dp1658
g4
(lp1659
S'intervention%1:04:02::'
p1660
aS'treatment%1:04:00::'
p1661
asg7
I00
ssS'd004.s004.t002'
p1662
(dp1663
g4
(lp1664
S'comprise%2:42:00::'
p1665
aS'contain%2:42:00::'
p1666
aS'incorporate%2:42:00::'
p1667
asg7
I00
ssS'd004.s004.t005'
p1668
(dp1669
g4
(lp1670
S'substance%1:03:00::'
p1671
aS'substance%1:03:01::'
p1672
aS'substance%1:27:00::'
p1673
asg7
I00
ssS'd001.s011.t029'
p1674
(dp1675
g4
(lp1676
S'chemotherapy%1:04:00::'
p1677
asg7
I00
ssS'd001.s034.t005'
p1678
(dp1679
g4
(lp1680
S'patient%1:18:00::'
p1681
asg7
I00
ssS'd004.s004.t009'
p1682
(dp1683
g4
(lp1684
S'available%3:00:00::'
p1685
asg7
I00
ssS'd001.s011.t025'
p1686
(dp1687
g4
(lp1688
S'experience%2:39:00::'
p1689
aS'get%2:39:00::'
p1690
aS'have%2:39:06::'
p1691
aS'receive%2:39:03::'
p1692
asg7
I00
ssS'd002.s020.t021'
p1693
(dp1694
g4
(lp1695
S'treat%2:31:00::'
p1696
asg7
I00
ssS'd001.s034.t008'
p1697
(dp1698
g4
(lp1699
S'cell%1:03:00::'
p1700
asg7
I00
ssS'd001.s011.t022'
p1701
(dp1702
g4
(lp1703
S'patient%1:18:00::'
p1704
asg7
I00
ssS'd002.s020.t024'
p1705
(dp1706
g4
(lp1707
S'user%1:18:00::'
p1708
asg7
I00
ssS'd003.s009.t012'
p1709
(dp1710
g4
(lp1711
S'sector%1:14:00::'
p1712
asg7
I00
ssS'd003.s009.t011'
p1713
(dp1714
g4
(lp1715
S'banking%1:04:01::'
p1716
asg7
I00
ssS'd003.s009.t015'
p1717
(dp1718
g4
(lp1719
S'include%2:30:00::'
p1720
aS'include%2:31:00::'
p1721
aS'include%2:42:00::'
p1722
asg7
I00
ssS'd002.s048.t027'
p1723
(dp1724
g4
(lp1725
S'add%2:30:00::'
p1726
asg7
I00
ssS'd002.s014.t009'
p1727
(dp1728
g4
(lp1729
S'apply%2:34:00::'
p1730
aS'employ%2:34:00::'
p1731
aS'use%2:34:01::'
p1732
aS'utilise%2:34:00::'
p1733
aS'utilize%2:34:00::'
p1734
asg7
I00
ssS'd002.s014.t005'
p1735
(dp1736
g4
(lp1737
S'exponent%1:10:00::'
p1738
aS'index%1:10:02::'
p1739
aS'power%1:10:00::'
p1740
asg7
I00
ssS'd002.s023.t003'
p1741
(dp1742
g4
(lp1743
S'agency%1:04:00::'
p1744
aS'means%1:04:00::'
p1745
aS'way%1:04:01::'
p1746
asg7
I01
ssS'd002.s023.t004'
p1747
(dp1748
g4
(lp1749
S'agency%1:04:00::'
p1750
aS'means%1:04:00::'
p1751
aS'method%1:09:00::'
p1752
aS'way%1:04:01::'
p1753
asg7
I00
ssS'd002.s023.t007'
p1754
(dp1755
g4
(lp1756
S'define%2:32:01::'
p1757
aS'determine%2:32:03::'
p1758
aS'fix%2:32:03::'
p1759
aS'limit%2:32:00::'
p1760
aS'set%2:32:00::'
p1761
aS'specify%2:32:02::'
p1762
asg7
I00
ssS'd002.s023.t008'
p1763
(dp1764
g4
(lp1765
S'conditional%3:00:00::'
p1766
asg7
I00
ssS'd002.s042.t006'
p1767
(dp1768
g4
(lp1769
S'type%2:32:00::'
p1770
aS'typewrite%2:32:00::'
p1771
asg7
I00
ssS'd002.s042.t001'
p1772
(dp1773
g4
(lp1774
S'save%2:32:04::'
p1775
aS'write%2:32:03::'
p1776
asg7
I00
ssS'd003.s021.t007'
p1777
(dp1778
g4
(lp1779
S'worker%1:18:00::'
p1780
asg7
I00
ssS'd004.s010.t023'
p1781
(dp1782
g4
(lp1783
S'intervention%1:04:02::'
p1784
aS'treatment%1:04:00::'
p1785
asg7
I00
ssS'd003.s011.t028'
p1786
(dp1787
g4
(lp1788
S'development%1:04:01::'
p1789
asg7
I00
ssS'd004.s010.t025'
p1790
(dp1791
g4
(lp1792
S'disgorgement%1:04:00::'
p1793
aS'emesis%1:04:00::'
p1794
aS'puking%1:04:00::'
p1795
aS'regurgitation%1:04:00::'
p1796
aS'vomit%1:04:00::'
p1797
aS'vomiting%1:04:00::'
p1798
asg7
I00
ssS'd001.s024.t024'
p1799
(dp1800
g4
(lp1801
S'base%1:27:01::'
p1802
aS'nucleotide%1:27:00::'
p1803
asg7
I00
ssS'd003.s011.t020'
p1804
(dp1805
g4
(lp1806
S'pattern%1:04:00::'
p1807
aS'practice%1:04:00::'
p1808
asg7
I00
ssS'd004.s010.t029'
p1809
(dp1810
g4
(lp1811
S'injection%1:04:01::'
p1812
aS'shot%1:04:03::'
p1813
asg7
I00
ssS'd003.s011.t026'
p1814
(dp1815
g4
(lp1816
S'grooming%1:04:01::'
p1817
aS'preparation%1:04:00::'
p1818
aS'training%1:04:00::'
p1819
asg7
I00
ssS'd001.s024.t021'
p1820
(dp1821
g4
(lp1822
S'involve%2:42:04::'
p1823
asg7
I00
ssS'd003.s011.t024'
p1824
(dp1825
g4
(lp1826
S'enlisting%1:04:00::'
p1827
aS'recruitment%1:04:00::'
p1828
asg7
I00
ssS'd001.s019.t024'
p1829
(dp1830
g4
(lp1831
S'other%3:00:00::'
p1832
asg7
I00
ssS'd001.s029.t022'
p1833
(dp1834
g4
(lp1835
S'involve%2:42:04::'
p1836
asg7
I00
ssS'd001.s029.t021'
p1837
(dp1838
g4
(lp1839
S'study%1:04:00::'
p1840
aS'survey%1:04:02::'
p1841
asg7
I00
ssS'd001.s029.t027'
p1842
(dp1843
g4
(lp1844
S'non%4:02:00::'
p1845
aS'not%4:02:00::'
p1846
asg7
I00
ssS'd001.s019.t022'
p1847
(dp1848
g4
(lp1849
S'get%2:29:11::'
p1850
aS'have%2:29:02::'
p1851
aS'have%2:29:05::'
p1852
aS'suffer%2:29:01::'
p1853
aS'sustain%2:29:00::'
p1854
asg7
I00
ssS'd001.s019.t023'
p1855
(dp1856
g4
(lp1857
S'certain%5:00:00:definite:00'
p1858
asg7
I00
ssS'd001.s029.t029'
p1859
(dp1860
g4
(lp1861
S'chemotherapy%1:04:00::'
p1862
asg7
I00
ssS'd001.s029.t028'
p1863
(dp1864
g4
(lp1865
S'experience%2:39:00::'
p1866
aS'get%2:39:00::'
p1867
aS'have%2:39:06::'
p1868
aS'receive%2:39:03::'
p1869
asg7
I00
ssS'd002.s018.t011'
p1870
(dp1871
g4
(lp1872
S'antecedence%1:07:00::'
p1873
aS'antecedency%1:07:00::'
p1874
aS'anteriority%1:07:01::'
p1875
aS'precedence%1:07:00::'
p1876
aS'precedence%1:26:00::'
p1877
aS'precedency%1:07:00::'
p1878
aS'precedency%1:26:00::'
p1879
aS'priority%1:07:00::'
p1880
aS'priority%1:26:00::'
p1881
asg7
I00
ssS'd002.s018.t010'
p1882
(dp1883
g4
(lp1884
S'high%3:00:02::'
p1885
asg7
I00
ssS'd003.s015.t015'
p1886
(dp1887
g4
(lp1888
S'pattern%1:04:00::'
p1889
aS'practice%1:04:00::'
p1890
asg7
I00
ssS'd003.s015.t014'
p1891
(dp1892
g4
(lp1893
S'overall%5:00:00:general:00'
p1894
aS'overall%5:00:00:gross:00'
p1895
asg7
I00
ssS'd003.s015.t013'
p1896
(dp1897
g4
(lp1898
S'synthesise%2:31:00::'
p1899
aS'synthesize%2:31:00::'
p1900
asg7
I00
ssS'd003.s015.t010'
p1901
(dp1902
g4
(lp1903
S'european%3:01:00::'
p1904
asg7
I00
ssS'd001.s038.t010'
p1905
(dp1906
g4
(lp1907
S'cell%1:03:00::'
p1908
asg7
I00
ssS'd001.s038.t011'
p1909
(dp1910
g4
(lp1911
S'feature%2:42:00::'
p1912
aS'get%2:29:11::'
p1913
aS'have%2:29:05::'
p1914
aS'have%2:42:00::'
p1915
aS'suffer%2:29:01::'
p1916
aS'sustain%2:29:00::'
p1917
asg7
I00
ssS'd001.s038.t012'
p1918
(dp1919
g4
(lp1920
S'short%3:00:02::'
p1921
asg7
I00
ssS'd001.s038.t013'
p1922
(dp1923
g4
(lp1924
S'endurance%1:26:00::'
p1925
aS'survival%1:26:00::'
p1926
asg7
I00
ssS'd001.s038.t014'
p1927
(dp1928
g4
(lp1929
S'time%1:28:00::'
p1930
aS'times%1:28:01::'
p1931
asg7
I00
ssS'd004.s022.t010'
p1932
(dp1933
g4
(lp1934
S'dosage%1:06:00::'
p1935
aS'dose%1:06:00::'
p1936
asg7
I00
ssS'd003.s010.t035'
p1937
(dp1938
g4
(lp1939
S'commission%1:14:00::'
p1940
aS'committee%1:14:00::'
p1941
asg7
I00
ssS'd001.s003.t009'
p1942
(dp1943
g4
(lp1944
S'condition%1:26:05::'
p1945
asg7
I00
ssS'd001.s003.t008'
p1946
(dp1947
g4
(lp1948
S'medical%3:00:00::'
p1949
asg7
I00
ssS'd003.s003.t034'
p1950
(dp1951
g4
(lp1952
S'service%1:04:08::'
p1953
aS'services%1:04:00::'
p1954
asg7
I00
ssS'd003.s003.t035'
p1955
(dp1956
g4
(lp1957
S'user%1:18:00::'
p1958
asg7
I00
ssS'd001.s003.t005'
p1959
(dp1960
g4
(lp1961
S'data%1:14:00::'
p1962
aS'information%1:09:00::'
p1963
aS'information%1:14:00::'
p1964
asg7
I00
ssS'd002.s009.t015'
p1965
(dp1966
g4
(lp1967
S'do%2:36:01::'
p1968
aS'do%2:41:04::'
p1969
aS'execute%2:36:01::'
p1970
aS'perform%2:36:00::'
p1971
aS'perform%2:41:00::'
p1972
asg7
I00
ssS'd002.s009.t011'
p1973
(dp1974
g4
(lp1975
S'type%2:32:00::'
p1976
aS'typewrite%2:32:00::'
p1977
asg7
I00
ssS'd001.s027.t015'
p1978
(dp1979
g4
(lp1980
S'alone%4:02:00::'
p1981
aS'alone%4:02:01::'
p1982
aS'entirely%4:02:02::'
p1983
aS'exclusively%4:02:00::'
p1984
aS'only%4:02:01::'
p1985
aS'solely%4:02:00::'
p1986
aS'solo%4:02:00::'
p1987
aS'unaccompanied%4:02:00::'
p1988
asg7
I00
ssS'd004.s022.t005'
p1989
(dp1990
g4
(lp1991
S'tolerate%2:39:00::'
p1992
asg7
I00
ssS'd004.s022.t004'
p1993
(dp1994
g4
(lp1995
S'good%4:02:00::'
p1996
aS'well%4:02:00::'
p1997
asg7
I00
ssS'd001.s018.t032'
p1998
(dp1999
g4
(lp2000
S'dosage%1:06:00::'
p2001
aS'dose%1:06:00::'
p2002
asg7
I00
ssS'd004.s017.t011'
p2003
(dp2004
g4
(lp2005
S'effective%3:00:00::'
p2006
aS'effective%5:00:00:efficacious:00'
p2007
aS'effectual%3:00:02::'
p2008
aS'efficacious%3:00:02::'
p2009
asg7
I00
ssS'd004.s017.t016'
p2010
(dp2011
g4
(lp2012
S'less%3:00:00::'
p2013
asg7
I00
ssS'd004.s017.t017'
p2014
(dp2015
g4
(lp2016
S'disgorgement%1:04:00::'
p2017
aS'emesis%1:04:00::'
p2018
aS'puking%1:04:00::'
p2019
aS'regurgitation%1:04:00::'
p2020
aS'vomit%1:04:00::'
p2021
aS'vomiting%1:04:00::'
p2022
asg7
I00
ssS'd004.s017.t014'
p2023
(dp2024
g4
(lp2025
S'placebo%1:06:00::'
p2026
asg7
I00
ssS'd004.s022.t008'
p2027
(dp2028
g4
(lp2029
S'daily%4:02:00::'
p2030
asg7
I00
ssS'd001.s002.t011'
p2031
(dp2032
g4
(lp2033
S'employment%1:04:01::'
p2034
aS'exercise%1:04:03::'
p2035
aS'usage%1:04:00::'
p2036
aS'use%1:04:00::'
p2037
aS'use%1:07:02::'
p2038
aS'utilisation%1:04:00::'
p2039
aS'utilization%1:04:00::'
p2040
asg7
I00
ssS'd001.s002.t010'
p2041
(dp2042
g4
(lp2043
S'human%3:01:01::'
p2044
asg7
I00
ssS'd002.s034.t020'
p2045
(dp2046
g4
(lp2047
S'agency%1:04:00::'
p2048
aS'means%1:04:00::'
p2049
aS'method%1:09:00::'
p2050
aS'way%1:04:01::'
p2051
asg7
I00
ssS'd001.s002.t015'
p2052
(dp2053
g4
(lp2054
S'appraise%2:31:01::'
p2055
aS'assess%2:31:00::'
p2056
aS'evaluate%2:31:00::'
p2057
aS'measure%2:31:01::'
p2058
aS'valuate%2:31:00::'
p2059
aS'value%2:31:00::'
p2060
asg7
I00
ssS'd001.s002.t017'
p2061
(dp2062
g4
(lp2063
S'study%1:04:00::'
p2064
aS'survey%1:04:02::'
p2065
asg7
I00
ssS'd001.s002.t018'
p2066
(dp2067
g4
(lp2068
S'do%2:36:01::'
p2069
aS'execute%2:36:01::'
p2070
aS'perform%2:36:00::'
p2071
asg7
I00
ssS'd002.s028.t004'
p2072
(dp2073
g4
(lp2074
S'ask%2:32:04::'
p2075
asg7
I00
ssS'd001.s036.t018'
p2076
(dp2077
g4
(lp2078
S'month%1:28:00::'
p2079
asg7
I00
ssS'd004.s020.t026'
p2080
(dp2081
g4
(lp2082
S'disgorgement%1:04:00::'
p2083
aS'emesis%1:04:00::'
p2084
aS'puking%1:04:00::'
p2085
aS'regurgitation%1:04:00::'
p2086
aS'vomit%1:04:00::'
p2087
aS'vomiting%1:04:00::'
p2088
asg7
I00
ssS'd003.s010.t046'
p2089
(dp2090
g4
(lp2091
S'parliament%1:14:00::'
p2092
asg7
I00
ssS'd003.s010.t045'
p2093
(dp2094
g4
(lp2095
S'european%3:01:00::'
p2096
asg7
I00
ssS'd002.s031.t003'
p2097
(dp2098
g4
(lp2099
S'apply%2:34:00::'
p2100
aS'employ%2:34:00::'
p2101
aS'use%2:34:01::'
p2102
aS'utilise%2:34:00::'
p2103
aS'utilize%2:34:00::'
p2104
asg7
I00
ssS'd001.s036.t013'
p2105
(dp2106
g4
(lp2107
S'average%5:00:01:normal:01'
p2108
aS'average%5:00:02:normal:01'
p2109
aS'mean%5:00:00:normal:01'
p2110
aS'median%5:00:00:normal:01'
p2111
asg7
I00
ssS'd004.s002.t008'
p2112
(dp2113
g4
(lp2114
S'product%1:06:00::'
p2115
aS'production%1:06:00::'
p2116
asg7
I00
ssS'd002.s031.t006'
p2117
(dp2118
g4
(lp2119
S'multiplication%1:04:00::'
p2120
aS'times%1:04:00::'
p2121
asg7
I00
ssS'd001.s036.t014'
p2122
(dp2123
g4
(lp2124
S'endurance%1:26:00::'
p2125
aS'survival%1:26:00::'
p2126
asg7
I00
ssS'd001.s036.t015'
p2127
(dp2128
g4
(lp2129
S'time%1:28:00::'
p2130
aS'times%1:28:01::'
p2131
asg7
I00
ssS'd001.s010.t009'
p2132
(dp2133
g4
(lp2134
S'anticancer%3:01:00::'
p2135
aS'antineoplastic%3:01:00::'
p2136
aS'antitumor%3:01:00::'
p2137
aS'antitumour%3:01:00::'
p2138
asg7
I00
ssS'd003.s012.t017'
p2139
(dp2140
g4
(lp2141
S'study%1:04:00::'
p2142
aS'survey%1:04:02::'
p2143
asg7
I00
ssS'd001.s010.t003'
p2144
(dp2145
g4
(lp2146
S'apply%2:34:00::'
p2147
aS'employ%2:34:00::'
p2148
aS'habituate%2:34:00::'
p2149
aS'use%2:34:01::'
p2150
aS'use%2:34:02::'
p2151
aS'utilise%2:34:00::'
p2152
aS'utilize%2:34:00::'
p2153
asg7
I00
ssS'd003.s020.t018'
p2154
(dp2155
g4
(lp2156
S'reintegrate%2:30:00::'
p2157
asg7
I00
ssS'd003.s020.t010'
p2158
(dp2159
g4
(lp2160
S'project%1:09:00::'
p2161
aS'projection%1:09:00::'
p2162
asg7
I00
ssS'd003.s020.t016'
p2163
(dp2164
g4
(lp2165
S'holding%1:04:00::'
p2166
aS'keeping%1:04:02::'
p2167
aS'retention%1:04:00::'
p2168
asg7
I00
ssS'd003.s012.t013'
p2169
(dp2170
g4
(lp2171
S'farther%5:00:02:far:00'
p2172
aS'further%5:00:00:far:00'
p2173
asg7
I00
ssS'd003.s017.t005'
p2174
(dp2175
g4
(lp2176
S'document%2:32:00::'
p2177
asg7
I00
ssS'd003.s018.t014'
p2178
(dp2179
g4
(lp2180
S'attending%1:09:00::'
p2181
aS'attention%1:09:00::'
p2182
asg7
I00
ssS'd004.s010.t020'
p2183
(dp2184
g4
(lp2185
S'apply%2:34:00::'
p2186
aS'employ%2:34:00::'
p2187
aS'habituate%2:34:00::'
p2188
aS'use%2:34:01::'
p2189
aS'use%2:34:02::'
p2190
aS'utilise%2:34:00::'
p2191
aS'utilize%2:34:00::'
p2192
asg7
I00
ssS'd003.s017.t003'
p2193
(dp2194
g4
(lp2195
S'aim%2:31:01::'
p2196
aS'propose%2:31:01::'
p2197
aS'purport%2:31:00::'
p2198
aS'purpose%2:31:01::'
p2199
asg7
I00
ssS'd004.s015.t003'
p2200
(dp2201
g4
(lp2202
S'figure%1:07:01::'
p2203
aS'number%1:07:00::'
p2204
asg7
I00
ssS'd003.s013.t004'
p2205
(dp2206
g4
(lp2207
S'analyse%2:31:00::'
p2208
aS'analyse%2:31:04::'
p2209
aS'analyze%2:31:00::'
p2210
aS'analyze%2:31:04::'
p2211
aS'canvas%2:31:02::'
p2212
aS'canvass%2:31:02::'
p2213
aS'examine%2:31:00::'
p2214
aS'study%2:31:02::'
p2215
asg7
I00
ssS'd001.s033.t022'
p2216
(dp2217
g4
(lp2218
S'alone%4:02:01::'
p2219
aS'solo%4:02:00::'
p2220
aS'unaccompanied%4:02:00::'
p2221
asg7
I00
ssS'd004.s013.t002'
p2222
(dp2223
g4
(lp2224
S'block%2:41:00::'
p2225
aS'block%2:41:01::'
p2226
aS'blockade%2:41:00::'
p2227
aS'embarrass%2:41:00::'
p2228
aS'halt%2:41:00::'
p2229
aS'hinder%2:41:00::'
p2230
aS'kibosh%2:41:00::'
p2231
aS'obstruct%2:41:00::'
p2232
aS'stop%2:41:00::'
p2233
aS'stymie%2:41:00::'
p2234
aS'stymy%2:41:00::'
p2235
asg7
I00
ssS'd003.s021.t016'
p2236
(dp2237
g4
(lp2238
S'analyse%2:31:00::'
p2239
aS'analyze%2:31:00::'
p2240
aS'canvas%2:31:02::'
p2241
aS'canvass%2:31:02::'
p2242
aS'examine%2:31:00::'
p2243
aS'examine%2:32:01::'
p2244
aS'probe%2:32:00::'
p2245
aS'study%2:31:02::'
p2246
asg7
I00
ssS'd002.s022.t005'
p2247
(dp2248
g4
(lp2249
S'definition%1:10:00::'
p2250
asg7
I00
ssS'd002.s022.t004'
p2251
(dp2252
g4
(lp2253
S'condition%1:10:01::'
p2254
aS'precondition%1:10:00::'
p2255
aS'stipulation%1:10:00::'
p2256
asg7
I00
ssS'd002.s049.t010'
p2257
(dp2258
g4
(lp2259
S'box%1:25:00::'
p2260
asg7
I00
ssS'd002.s053.t011'
p2261
(dp2262
g4
(lp2263
S'mode%1:26:00::'
p2264
asg7
I00
ssS'd002.s049.t014'
p2265
(dp2266
g4
(lp2267
S'type%2:32:00::'
p2268
aS'typewrite%2:32:00::'
p2269
asg7
I00
ssS'd003.s017.t020'
p2270
(dp2271
g4
(lp2272
S'cause%1:11:00::'
p2273
asg7
I00
ssS'd004.s016.t002'
p2274
(dp2275
g4
(lp2276
S'benefit%1:07:00::'
p2277
aS'gain%1:07:02::'
p2278
aS'profit%1:07:00::'
p2279
aS'welfare%1:07:00::'
p2280
asg7
I00
ssS'd003.s011.t022'
p2281
(dp2282
g4
(lp2283
S'ameliorate%2:30:01::'
p2284
aS'amend%2:30:00::'
p2285
aS'better%2:30:01::'
p2286
aS'improve%2:30:01::'
p2287
aS'meliorate%2:30:01::'
p2288
asg7
I00
ssS'd004.s015.t005'
p2289
(dp2290
g4
(lp2291
S'study%1:04:00::'
p2292
aS'survey%1:04:02::'
p2293
asg7
I00
ssS'd001.s026.t022'
p2294
(dp2295
g4
(lp2296
S'non%4:02:00::'
p2297
aS'not%4:02:00::'
p2298
asg7
I00
ssS'd001.s026.t023'
p2299
(dp2300
g4
(lp2301
S'experience%2:39:00::'
p2302
aS'get%2:39:00::'
p2303
aS'have%2:39:06::'
p2304
aS'receive%2:39:03::'
p2305
asg7
I00
ssS'd001.s026.t027'
p2306
(dp2307
g4
(lp2308
S'disease%1:26:00::'
p2309
aS'illness%1:26:00::'
p2310
aS'malady%1:26:00::'
p2311
aS'sickness%1:26:00::'
p2312
aS'unwellness%1:26:00::'
p2313
asg7
I00
ssS'd001.s026.t024'
p2314
(dp2315
g4
(lp2316
S'chemotherapy%1:04:00::'
p2317
asg7
I00
ssS'd001.s026.t028'
p2318
(dp2319
g4
(lp2320
S'before%4:02:03::'
p2321
aS'earlier%4:02:00::'
p2322
asg7
I00
ssS'd003.s003.t016'
p2323
(dp2324
g4
(lp2325
S'function%1:04:00::'
p2326
aS'office%1:04:01::'
p2327
aS'part%1:04:01::'
p2328
aS'role%1:04:00::'
p2329
aS'role%1:04:01::'
p2330
asg7
I00
ssS'd003.s023.t005'
p2331
(dp2332
g4
(lp2333
S'comprehend%2:42:00::'
p2334
aS'cover%2:42:02::'
p2335
aS'embrace%2:42:00::'
p2336
aS'encompass%2:42:00::'
p2337
asg7
I00
ssS'd002.s010.t008'
p2338
(dp2339
g4
(lp2340
S'function%2:35:00::'
p2341
aS'go%2:35:00::'
p2342
aS'operate%2:35:03::'
p2343
aS'run%2:35:00::'
p2344
aS'work%2:35:02::'
p2345
asg7
I00
ssS'd003.s017.t018'
p2346
(dp2347
g4
(lp2348
S'analyse%2:31:00::'
p2349
aS'analyse%2:31:04::'
p2350
aS'analyze%2:31:00::'
p2351
aS'analyze%2:31:04::'
p2352
aS'canvas%2:31:02::'
p2353
aS'canvass%2:31:02::'
p2354
aS'examine%2:31:00::'
p2355
aS'study%2:31:02::'
p2356
asg7
I00
ssS'd001.s030.t008'
p2357
(dp2358
g4
(lp2359
S'measure%1:04:00::'
p2360
aS'measurement%1:04:00::'
p2361
aS'measuring%1:04:00::'
p2362
aS'mensuration%1:04:00::'
p2363
asg7
I00
ssS'd001.s023.t003'
p2364
(dp2365
g4
(lp2366
S'substance%1:03:01::'
p2367
aS'substance%1:27:00::'
p2368
asg7
I00
ssS'd001.s023.t002'
p2369
(dp2370
g4
(lp2371
S'active%3:00:07::'
p2372
asg7
I00
ssS'd003.s017.t010'
p2373
(dp2374
g4
(lp2375
S'barrier%1:09:00::'
p2376
aS'roadblock%1:09:00::'
p2377
asg7
I00
ssS'd003.s017.t013'
p2378
(dp2379
g4
(lp2380
S'enlisting%1:04:00::'
p2381
aS'recruitment%1:04:00::'
p2382
asg7
I00
ssS'd002.s010.t005'
p2383
(dp2384
g4
(lp2385
S'realise%2:31:00::'
p2386
aS'realize%2:31:00::'
p2387
aS'see%2:31:01::'
p2388
aS'understand%2:31:00::'
p2389
aS'understand%2:31:01::'
p2390
asg7
I00
ssS'd003.s018.t005'
p2391
(dp2392
g4
(lp2393
S'social%3:01:00::'
p2394
aS'societal%3:01:00::'
p2395
asg7
I00
ssS'd002.s040.t006'
p2396
(dp2397
g4
(lp2398
S'define%2:32:01::'
p2399
aS'define%2:42:01::'
p2400
aS'determine%2:32:03::'
p2401
aS'fix%2:32:03::'
p2402
aS'limit%2:32:00::'
p2403
aS'set%2:32:00::'
p2404
aS'specify%2:32:02::'
p2405
asg7
I00
ssS'd004.s006.t025'
p2406
(dp2407
g4
(lp2408
S'face%1:15:00::'
p2409
aS'side%1:06:00::'
p2410
aS'side%1:08:00::'
p2411
aS'side%1:15:00::'
p2412
asg7
I00
ssS'd001.s019.t026'
p2413
(dp2414
g4
(lp2415
S'effect%1:26:00::'
p2416
asg7
I00
ssS'd002.s040.t004'
p2417
(dp2418
g4
(lp2419
S'desire%2:37:00::'
p2420
aS'want%2:37:00::'
p2421
asg7
I00
ssS'd004.s019.t009'
p2422
(dp2423
g4
(lp2424
S'administer%2:29:00::'
p2425
aS'dispense%2:29:00::'
p2426
asg7
I00
ssS'd004.s019.t007'
p2427
(dp2428
g4
(lp2429
S'owner%1:18:02::'
p2430
aS'possessor%1:18:00::'
p2431
asg7
I00
ssS'd004.s010.t014'
p2432
(dp2433
g4
(lp2434
S'diet%1:13:00::'
p2435
asg7
I00
ssS'd004.s019.t003'
p2436
(dp2437
g4
(lp2438
S'intervention%1:04:02::'
p2439
aS'treatment%1:04:00::'
p2440
asg7
I00
ssS'd004.s018.t033'
p2441
(dp2442
g4
(lp2443
S'lozenge%1:06:00::'
p2444
aS'pill%1:06:00::'
p2445
aS'tab%1:06:00::'
p2446
aS'tablet%1:06:00::'
p2447
asg7
I00
ssS'd001.s015.t020'
p2448
(dp2449
g4
(lp2450
S'patient%1:18:00::'
p2451
asg7
I00
ssS'd001.s015.t022'
p2452
(dp2453
g4
(lp2454
S'height%1:07:01::'
p2455
aS'stature%1:07:02::'
p2456
asg7
I00
ssS'd002.s020.t011'
p2457
(dp2458
g4
(lp2459
S'operator%1:24:00::'
p2460
asg7
I00
ssS'd001.s015.t024'
p2461
(dp2462
g4
(lp2463
S'weight%1:07:00::'
p2464
asg7
I00
ssS'd001.s007.t004'
p2465
(dp2466
g4
(lp2467
S'active%3:00:07::'
p2468
asg7
I00
ssS'd003.s008.t008'
p2469
(dp2470
g4
(lp2471
S'interview%1:10:01::'
p2472
asg7
I00
ssS'd003.s008.t007'
p2473
(dp2474
g4
(lp2475
S'personal%5:00:00:subjective:00'
p2476
asg7
I00
ssS'd003.s008.t004'
p2477
(dp2478
g4
(lp2479
S'base%2:31:00::'
p2480
aS'establish%2:31:03::'
p2481
aS'found%2:31:00::'
p2482
aS'ground%2:31:00::'
p2483
asg7
I00
ssS'd001.s029.t024'
p2484
(dp2485
g4
(lp2486
S'patient%1:18:00::'
p2487
asg7
I00
ssS'd003.s008.t002'
p2488
(dp2489
g4
(lp2490
S'study%1:04:00::'
p2491
aS'survey%1:04:02::'
p2492
asg7
I00
ssS'd003.s007.t015'
p2493
(dp2494
g4
(lp2495
S'appraise%2:31:01::'
p2496
aS'assess%2:31:00::'
p2497
aS'evaluate%2:31:00::'
p2498
aS'measure%2:31:01::'
p2499
aS'valuate%2:31:00::'
p2500
aS'value%2:31:00::'
p2501
asg7
I00
ssS'd003.s002.t012'
p2502
(dp2503
g4
(lp2504
S'care%2:41:11::'
p2505
aS'deal%2:41:09::'
p2506
aS'deal%2:41:13::'
p2507
aS'handle%2:41:00::'
p2508
aS'manage%2:41:00::'
p2509
asg7
I00
ssS'd002.s007.t002'
p2510
(dp2511
g4
(lp2512
S'chief%5:00:02:important:00'
p2513
aS'main%5:00:00:important:00'
p2514
aS'master%5:00:00:important:00'
p2515
aS'primary%5:00:00:important:00'
p2516
aS'principal%5:00:00:important:00'
p2517
asg7
I00
ssS'd002.s007.t003'
p2518
(dp2519
g4
(lp2520
S'window%1:06:03::'
p2521
asg7
I00
ssS'd003.s016.t005'
p2522
(dp2523
g4
(lp2524
S'casebook%1:10:00::'
p2525
asg7
I01
ssS'd002.s038.t002'
p2526
(dp2527
g4
(lp2528
S'l%1:10:00::'
p2529
asg7
I00
ssS'd003.s016.t006'
p2530
(dp2531
g4
(lp2532
S'book%1:10:00::'
p2533
asg7
I00
ssS'd004.s021.t004'
p2534
(dp2535
g4
(lp2536
S'endangerment%1:26:00::'
p2537
aS'hazard%1:26:00::'
p2538
aS'jeopardy%1:26:00::'
p2539
aS'peril%1:26:00::'
p2540
aS'risk%1:26:00::'
p2541
asg7
I00
ssS'd002.s038.t003'
p2542
(dp2543
g4
(lp2544
S'load%2:40:12::'
p2545
asg7
I00
ssS'd004.s002.t007'
p2546
(dp2547
g4
(lp2548
S'medicative%5:00:00:healthful:00'
p2549
aS'medicinal%5:00:00:healthful:00'
p2550
asg7
I00
ssS'd004.s002.t005'
p2551
(dp2552
g4
(lp2553
S'commission%1:14:00::'
p2554
aS'committee%1:14:00::'
p2555
asg7
I00
ssS'd004.s002.t002'
p2556
(dp2557
g4
(lp2558
S'explain%2:32:00::'
p2559
aS'explain%2:32:01::'
p2560
aS'explicate%2:32:00::'
p2561
asg7
I00
ssS'd003.s018.t002'
p2562
(dp2563
g4
(lp2564
S'perspective%1:09:00::'
p2565
aS'position%1:09:00::'
p2566
aS'view%1:09:02::'
p2567
asg7
I00
ssS'd001.s038.t008'
p2568
(dp2569
g4
(lp2570
S'affect%2:29:00::'
p2571
asg7
I00
ssS'd003.s012.t016'
p2572
(dp2573
g4
(lp2574
S'case%1:10:02::'
p2575
aS'case%1:11:00::'
p2576
aS'example%1:09:02::'
p2577
aS'example%1:11:00::'
p2578
aS'instance%1:11:00::'
p2579
aS'model%1:09:02::'
p2580
asg7
I00
ssS'd001.s028.t036'
p2581
(dp2582
g4
(lp2583
S'disease%1:26:00::'
p2584
aS'illness%1:26:00::'
p2585
aS'malady%1:26:00::'
p2586
aS'sickness%1:26:00::'
p2587
aS'unwellness%1:26:00::'
p2588
asg7
I00
ssS'd001.s028.t035'
p2589
(dp2590
g4
(lp2591
S'metastasis%1:22:01::'
p2592
asg7
I01
ssS'd003.s012.t015'
p2593
(dp2594
g4
(lp2595
S'depth%1:07:01::'
p2596
aS'depth%1:07:02::'
p2597
asg7
I00
ssS'd001.s028.t033'
p2598
(dp2599
g4
(lp2600
S'advanced%5:00:00:late:02'
p2601
asg7
I00
ssS'd001.s028.t032'
p2602
(dp2603
g4
(lp2604
S'locally%4:02:01::'
p2605
aS'topically%4:02:00::'
p2606
asg7
I00
ssS'd001.s028.t030'
p2607
(dp2608
g4
(lp2609
S'patient%1:18:00::'
p2610
asg7
I00
ssS'd003.s019.t004'
p2611
(dp2612
g4
(lp2613
S'project%1:09:00::'
p2614
aS'projection%1:09:00::'
p2615
asg7
I00
ssS'd004.s015.t002'
p2616
(dp2617
g4
(lp2618
S'big%3:00:01::'
p2619
aS'large%3:00:00::'
p2620
asg7
I00
ssS'd003.s019.t007'
p2621
(dp2622
g4
(lp2623
S'appraise%2:31:01::'
p2624
aS'assess%2:31:00::'
p2625
aS'evaluate%2:31:00::'
p2626
aS'measure%2:31:01::'
p2627
aS'valuate%2:31:00::'
p2628
aS'value%2:31:00::'
p2629
asg7
I00
ssS'd003.s019.t001'
p2630
(dp2631
g4
(lp2632
S'third%4:02:00::'
p2633
aS'thirdly%4:02:00::'
p2634
asg7
I00
ssS'd001.s028.t039'
p2635
(dp2636
g4
(lp2637
S'experience%2:39:00::'
p2638
aS'get%2:39:00::'
p2639
aS'have%2:39:06::'
p2640
aS'receive%2:39:03::'
p2641
asg7
I00
ssS'd001.s029.t015'
p2642
(dp2643
g4
(lp2644
S'combination%1:04:00::'
p2645
aS'combination%1:14:00::'
p2646
aS'combining%1:04:00::'
p2647
aS'compounding%1:04:00::'
p2648
asg7
I00
ssS'd004.s022.t007'
p2649
(dp2650
g4
(lp2651
S'administer%2:29:00::'
p2652
aS'dispense%2:29:00::'
p2653
asg7
I00
ssS'd001.s016.t014'
p2654
(dp2655
g4
(lp2656
S'min%1:28:00::'
p2657
aS'minute%1:28:00::'
p2658
asg7
I00
ssS'd003.s002.t016'
p2659
(dp2660
g4
(lp2661
S'challenge%1:26:00::'
p2662
asg7
I00
ssS'd003.s002.t015'
p2663
(dp2664
g4
(lp2665
S'critical%3:00:03::'
p2666
aS'critical%5:00:00:crucial:00'
p2667
aS'decisive%5:00:00:crucial:00'
p2668
asg7
I00
ssS'd004.s018.t032'
p2669
(dp2670
g4
(lp2671
S'entire%5:00:02:whole:00'
p2672
aS'intact%5:00:00:undamaged:00'
p2673
aS'intact%5:00:00:whole:00'
p2674
aS'integral%5:00:00:whole:00'
p2675
asg7
I00
ssS'd001.s016.t010'
p2676
(dp2677
g4
(lp2678
S'endovenous%3:01:00::'
p2679
aS'intravenous%3:01:00::'
p2680
asg7
I00
ssS'd001.s016.t011'
p2681
(dp2682
g4
(lp2683
S'infusion%1:04:00::'
p2684
asg7
I00
ssS'd001.s016.t012'
p2685
(dp2686
g4
(lp2687
S'endure%2:42:06::'
p2688
aS'last%2:42:00::'
p2689
asg7
I00
ssS'd003.s002.t010'
p2690
(dp2691
g4
(lp2692
S'conference%1:14:00::'
p2693
asg7
I00
ssS'd001.s010.t047'
p2694
(dp2695
g4
(lp2696
S'patient%1:18:00::'
p2697
asg7
I00
ssS'd004.s019.t011'
p2698
(dp2699
g4
(lp2700
S'lozenge%1:06:00::'
p2701
aS'pill%1:06:00::'
p2702
aS'tab%1:06:00::'
p2703
aS'tablet%1:06:00::'
p2704
asg7
I00
ssS'd004.s022.t017'
p2705
(dp2706
g4
(lp2707
S'dosage%1:06:00::'
p2708
aS'dose%1:06:00::'
p2709
asg7
I00
ssS'd004.s009.t020'
p2710
(dp2711
g4
(lp2712
S'intervention%1:04:02::'
p2713
aS'treatment%1:04:00::'
p2714
asg7
I00
ssS'd001.s037.t007'
p2715
(dp2716
g4
(lp2717
S'patient%1:18:00::'
p2718
asg7
I00
ssS'd003.s022.t015'
p2719
(dp2720
g4
(lp2721
S'minor%5:00:00:limited:00'
p2722
aS'modest%5:00:00:limited:00'
p2723
aS'pocket-size%5:00:00:limited:00'
p2724
aS'pocket-sized%5:00:00:limited:00'
p2725
aS'small%5:00:00:limited:00'
p2726
aS'small-scale%5:00:00:limited:00'
p2727
asg7
I00
ssS'd004.s009.t028'
p2728
(dp2729
g4
(lp2730
S'know%2:31:02::'
p2731
asg7
I00
ssS'd004.s017.t043'
p2732
(dp2733
g4
(lp2734
S'disgorgement%1:04:00::'
p2735
aS'emesis%1:04:00::'
p2736
aS'puking%1:04:00::'
p2737
aS'regurgitation%1:04:00::'
p2738
aS'vomit%1:04:00::'
p2739
aS'vomiting%1:04:00::'
p2740
asg7
I00
ssS'd002.s021.t006'
p2741
(dp2742
g4
(lp2743
S'apply%2:34:00::'
p2744
aS'employ%2:34:00::'
p2745
aS'use%2:34:01::'
p2746
aS'utilise%2:34:00::'
p2747
aS'utilize%2:34:00::'
p2748
asg7
I00
ssS'd001.s006.t014'
p2749
(dp2750
g4
(lp2751
S'dribble%2:35:10::'
p2752
aS'drip%2:35:10::'
p2753
aS'drop%2:35:12::'
p2754
asg7
I00
ssS'd001.s037.t005'
p2755
(dp2756
g4
(lp2757
S'study%1:04:00::'
p2758
aS'survey%1:04:02::'
p2759
asg7
I00
ssS'd002.s029.t019'
p2760
(dp2761
g4
(lp2762
S'other%3:00:00::'
p2763
asg7
I00
ssS'd001.s006.t010'
p2764
(dp2765
g4
(lp2766
S'solution%1:27:00::'
p2767
asg7
I00
ssS'd003.s014.t005'
p2768
(dp2769
g4
(lp2770
S'cardinal%5:00:00:important:00'
p2771
aS'central%5:00:00:important:00'
p2772
aS'fundamental%5:00:00:important:00'
p2773
aS'key%5:00:00:important:00'
p2774
aS'primal%5:00:00:important:00'
p2775
asg7
I00
ssS'd001.s006.t012'
p2776
(dp2777
g4
(lp2778
S'infusion%1:04:00::'
p2779
asg7
I00
ssS'd002.s029.t014'
p2780
(dp2781
g4
(lp2782
S'cos%1:24:00::'
p2783
aS'cosine%1:24:00::'
p2784
asg7
I00
ssS'd002.s029.t016'
p2785
(dp2786
g4
(lp2787
S'sin%1:24:00::'
p2788
aS'sine%1:24:00::'
p2789
asg7
I00
ssS'd002.s029.t010'
p2790
(dp2791
g4
(lp2792
S'control%2:35:00::'
p2793
aS'operate%2:35:00::'
p2794
asg7
I00
ssS'd002.s021.t008'
p2795
(dp2796
g4
(lp2797
S'define%2:32:01::'
p2798
aS'determine%2:32:03::'
p2799
aS'fix%2:32:03::'
p2800
aS'limit%2:32:00::'
p2801
aS'set%2:32:00::'
p2802
aS'specify%2:32:02::'
p2803
asg7
I00
ssS'd001.s035.t017'
p2804
(dp2805
g4
(lp2806
S'month%1:28:00::'
p2807
asg7
I00
ssS'd001.s035.t014'
p2808
(dp2809
g4
(lp2810
S'time%1:28:00::'
p2811
aS'times%1:28:01::'
p2812
asg7
I00
ssS'd001.s035.t013'
p2813
(dp2814
g4
(lp2815
S'endurance%1:26:00::'
p2816
aS'survival%1:26:00::'
p2817
asg7
I00
ssS'd001.s035.t012'
p2818
(dp2819
g4
(lp2820
S'average%5:00:01:normal:01'
p2821
aS'average%5:00:02:normal:01'
p2822
aS'mean%5:00:00:normal:01'
p2823
aS'median%5:00:00:normal:01'
p2824
asg7
I00
ssS'd001.s008.t004'
p2825
(dp2826
g4
(lp2827
S'apply%2:34:00::'
p2828
aS'employ%2:34:00::'
p2829
aS'habituate%2:34:00::'
p2830
aS'use%2:34:01::'
p2831
aS'use%2:34:02::'
p2832
aS'utilise%2:34:00::'
p2833
aS'utilize%2:34:00::'
p2834
asg7
I00
ssS'd001.s023.t033'
p2835
(dp2836
g4
(lp2837
S'antimetabolite%1:06:00::'
p2838
asg7
I00
ssS'd004.s008.t010'
p2839
(dp2840
g4
(lp2841
S'arrest%2:38:00::'
p2842
aS'halt%2:38:05::'
p2843
aS'hold%2:38:05::'
p2844
asg7
I00
ssS'd003.s007.t020'
p2845
(dp2846
g4
(lp2847
S'direct%5:00:00:immediate:00'
p2848
aS'unmediated%5:00:00:immediate:00'
p2849
asg7
I00
ssS'd002.s008.t021'
p2850
(dp2851
g4
(lp2852
S'dictionary%1:10:00::'
p2853
aS'lexicon%1:10:00::'
p2854
asg7
I00
ssS'd003.s011.t036'
p2855
(dp2856
g4
(lp2857
S'location%1:03:00::'
p2858
asg7
I00
ssS'd003.s007.t023'
p2859
(dp2860
g4
(lp2861
S'humanise%2:37:00::'
p2862
aS'humanize%2:37:00::'
p2863
asg7
I00
ssS'd004.s005.t013'
p2864
(dp2865
g4
(lp2866
S'so%4:02:03::'
p2867
asg7
I00
ssS'd004.s005.t012'
p2868
(dp2869
g4
(lp2870
S'face%1:15:00::'
p2871
aS'side%1:06:00::'
p2872
aS'side%1:08:00::'
p2873
aS'side%1:15:00::'
p2874
asg7
I00
ssS'd003.s010.t032'
p2875
(dp2876
g4
(lp2877
S'eminent%5:00:00:superior:01'
p2878
aS'high%5:00:00:superior:01'
p2879
asg7
I00
ssS'd004.s011.t012'
p2880
(dp2881
g4
(lp2882
S'day%1:28:02::'
p2883
aS'daylight%1:28:00::'
p2884
aS'daytime%1:28:00::'
p2885
asg7
I00
ssS'd004.s005.t018'
p2886
(dp2887
g4
(lp2888
S'halve%2:31:00::'
p2889
asg7
I00
ssS'd003.s020.t022'
p2890
(dp2891
g4
(lp2892
S'aged%5:00:01:old:02'
p2893
aS'elderly%5:00:00:old:02'
p2894
aS'old%3:00:02::'
p2895
aS'old%5:00:00:experienced:00'
p2896
aS'older%5:00:00:experienced:00'
p2897
aS'older%5:00:00:old:02'
p2898
aS'senior%5:00:00:old:02'
p2899
asg7
I00
ssS'd003.s020.t023'
p2900
(dp2901
g4
(lp2902
S'worker%1:18:00::'
p2903
asg7
I00
ssS'd003.s020.t020'
p2904
(dp2905
g4
(lp2906
S'retrain%2:31:00::'
p2907
aS'retrain%2:31:01::'
p2908
asg7
I00
ssS'd002.s011.t006'
p2909
(dp2910
g4
(lp2911
S'basically%4:02:00::'
p2912
aS'essentially%4:02:01::'
p2913
aS'fundamentally%4:02:00::'
p2914
asg7
I00
ssS'd002.s011.t003'
p2915
(dp2916
g4
(lp2917
S'base%2:31:00::'
p2918
aS'establish%2:31:03::'
p2919
aS'found%2:31:00::'
p2920
aS'ground%2:31:00::'
p2921
asg7
I00
ssS'd002.s040.t010'
p2922
(dp2923
g4
(lp2924
S're-start%2:30:00::'
p2925
aS'restart%2:30:00::'
p2926
aS'resume%2:30:00::'
p2927
asg7
I00
ssS'd004.s017.t041'
p2928
(dp2929
g4
(lp2930
S'bar%1:04:00::'
p2931
aS'prevention%1:04:00::'
p2932
asg7
I00
ssS'd002.s040.t012'
p2933
(dp2934
g4
(lp2935
S'old%5:00:00:preceding:00'
p2936
aS'previous%5:00:00:preceding:00'
p2937
asg7
I00
ssS'd002.s040.t013'
p2938
(dp2939
g4
(lp2940
S'work%1:04:00::'
p2941
asg7
I00
ssS'd002.s011.t008'
p2942
(dp2943
g4
(lp2944
S'common%3:00:01::'
p2945
aS'common%3:00:02::'
p2946
aS'common%5:00:00:lowborn:00'
p2947
aS'common%5:00:00:ordinary:00'
p2948
aS'plebeian%5:00:00:lowborn:00'
p2949
aS'unwashed%5:00:00:lowborn:00'
p2950
aS'vulgar%5:00:00:lowborn:00'
p2951
asg7
I00
ssS'd002.s009.t017'
p2952
(dp2953
g4
(lp2954
S'calculation%1:04:00::'
p2955
aS'calculation%1:09:00::'
p2956
aS'computation%1:04:00::'
p2957
aS'computation%1:09:00::'
p2958
aS'computing%1:04:00::'
p2959
aS'figuring%1:09:00::'
p2960
aS'reckoning%1:09:00::'
p2961
asg7
I00
ssS'd004.s007.t004'
p2962
(dp2963
g4
(lp2964
S'apply%2:34:00::'
p2965
aS'employ%2:34:00::'
p2966
aS'habituate%2:34:00::'
p2967
aS'use%2:34:01::'
p2968
aS'use%2:34:02::'
p2969
aS'utilise%2:34:00::'
p2970
aS'utilize%2:34:00::'
p2971
asg7
I00
ssS'd004.s016.t008'
p2972
(dp2973
g4
(lp2974
S'study%1:04:00::'
p2975
aS'survey%1:04:02::'
p2976
asg7
I00
ssS'd002.s024.t027'
p2977
(dp2978
g4
(lp2979
S'condition%1:10:01::'
p2980
aS'precondition%1:10:00::'
p2981
aS'stipulation%1:10:00::'
p2982
asg7
I00
ssS'd003.s006.t031'
p2983
(dp2984
g4
(lp2985
S'major%3:00:02::'
p2986
aS'major%3:00:06::'
p2987
asg7
I00
ssS'd002.s024.t022'
p2988
(dp2989
g4
(lp2990
S'detect%2:39:00::'
p2991
aS'discover%2:39:03::'
p2992
aS'find%2:39:02::'
p2993
aS'notice%2:39:04::'
p2994
aS'observe%2:39:02::'
p2995
asg7
I00
ssS'd002.s026.t006'
p2996
(dp2997
g4
(lp2998
S'define%2:32:01::'
p2999
aS'define%2:42:01::'
p3000
aS'determine%2:32:03::'
p3001
aS'fix%2:32:03::'
p3002
aS'limit%2:32:00::'
p3003
aS'set%2:32:00::'
p3004
aS'specify%2:32:02::'
p3005
asg7
I00
ssS'd003.s005.t013'
p3006
(dp3007
g4
(lp3008
S'public%3:00:00::'
p3009
aS'public%5:00:00:common:02'
p3010
asg7
I00
ssS'd003.s005.t010'
p3011
(dp3012
g4
(lp3013
S'function%1:04:00::'
p3014
aS'office%1:04:01::'
p3015
aS'part%1:04:01::'
p3016
aS'role%1:04:00::'
p3017
aS'role%1:04:01::'
p3018
asg7
I00
ssS'd003.s005.t011'
p3019
(dp3020
g4
(lp3021
S'play%2:41:12::'
p3022
asg7
I00
ssS'd002.s026.t004'
p3023
(dp3024
g4
(lp3025
S'apply%2:34:00::'
p3026
aS'employ%2:34:00::'
p3027
aS'use%2:34:01::'
p3028
aS'utilise%2:34:00::'
p3029
aS'utilize%2:34:00::'
p3030
asg7
I00
ssS'd001.s003.t003'
p3031
(dp3032
g4
(lp3033
S'need%2:34:00::'
p3034
aS'need%2:34:01::'
p3035
aS'require%2:34:00::'
p3036
aS'want%2:34:00::'
p3037
asg7
I00
ssS'd002.s027.t004'
p3038
(dp3039
g4
(lp3040
S'work%2:41:02::'
p3041
asg7
I00
ssS'd002.s027.t002'
p3042
(dp3043
g4
(lp3044
S'useful%3:00:00::'
p3045
aS'useful%5:00:00:functional:00'
p3046
aS'utile%3:00:02::'
p3047
aS'utilitarian%5:00:00:functional:00'
p3048
asg7
I00
ssS'd003.s006.t034'
p3049
(dp3050
g4
(lp3051
S'public%3:00:00::'
p3052
aS'public%5:00:00:common:02'
p3053
asg7
I00
ssS'd002.s035.t019'
p3054
(dp3055
g4
(lp3056
S'last%3:00:00::'
p3057
aS'last%5:00:00:past:00'
p3058
asg7
I00
ssS'd002.s006.t007'
p3059
(dp3060
g4
(lp3061
S'chief%5:00:02:important:00'
p3062
aS'main%5:00:00:important:00'
p3063
aS'master%5:00:00:important:00'
p3064
aS'primary%5:00:00:important:00'
p3065
aS'principal%5:00:00:important:00'
p3066
asg7
I00
ssS'd002.s006.t001'
p3067
(dp3068
g4
(lp3069
S'here%4:02:00::'
p3070
asg7
I00
ssS'd003.s004.t004'
p3071
(dp3072
g4
(lp3073
S'few%3:00:00::'
p3074
asg7
I00
ssS'd003.s004.t005'
p3075
(dp3076
g4
(lp3077
S'case%1:10:02::'
p3078
aS'case%1:11:00::'
p3079
aS'example%1:09:02::'
p3080
aS'example%1:11:00::'
p3081
aS'instance%1:11:00::'
p3082
aS'model%1:09:02::'
p3083
asg7
I00
ssS'd002.s035.t012'
p3084
(dp3085
g4
(lp3086
S'variable%1:10:00::'
p3087
asg7
I00
ssS'd002.s035.t013'
p3088
(dp3089
g4
(lp3090
S'value%1:09:00::'
p3091
asg7
I00
ssS'd002.s006.t008'
p3092
(dp3093
g4
(lp3094
S'window%1:06:03::'
p3095
asg7
I00
ssS'd002.s035.t016'
p3096
(dp3097
g4
(lp3098
S'alter%2:30:01::'
p3099
aS'change%2:30:01::'
p3100
aS'modify%2:30:10::'
p3101
asg7
I00
ssS'd002.s048.t014'
p3102
(dp3103
g4
(lp3104
S'do%2:36:01::'
p3105
aS'do%2:41:04::'
p3106
aS'execute%2:36:01::'
p3107
aS'perform%2:36:00::'
p3108
aS'perform%2:41:00::'
p3109
asg7
I00
ssS'd004.s006.t024'
p3110
(dp3111
g4
(lp3112
S'other%3:00:00::'
p3113
asg7
I00
ssS'd002.s048.t017'
p3114
(dp3115
g4
(lp3116
S'go%2:38:00::'
p3117
aS'locomote%2:38:00::'
p3118
aS'move%2:38:03::'
p3119
aS'travel%2:38:00::'
p3120
asg7
I00
ssS'd004.s013.t009'
p3121
(dp3122
g4
(lp3123
S'receptor%1:08:01::'
p3124
asg7
I00
ssS'd004.s024.t003'
p3125
(dp3126
g4
(lp3127
S'non%4:02:00::'
p3128
aS'not%4:02:00::'
p3129
asg7
I00
ssS'd002.s016.t006'
p3130
(dp3131
g4
(lp3132
S'make%2:36:12::'
p3133
asg7
I00
ssS'd002.s053.t001'
p3134
(dp3135
g4
(lp3136
S'but%4:02:01::'
p3137
aS'just%4:02:00::'
p3138
aS'merely%4:02:00::'
p3139
aS'only%4:02:02::'
p3140
aS'simply%4:02:00::'
p3141
asg7
I00
ssS'd003.s011.t039'
p3142
(dp3143
g4
(lp3144
S'community%1:14:00::'
p3145
asg7
I00
ssS'd004.s010.t033'
p3146
(dp3147
g4
(lp3148
S'follow%2:42:03::'
p3149
asg7
I00
ssS'd004.s010.t032'
p3150
(dp3151
g4
(lp3152
S'injection%1:04:01::'
p3153
aS'shot%1:04:03::'
p3154
asg7
I00
ssS'd002.s017.t010'
p3155
(dp3156
g4
(lp3157
S'placeholder%1:10:00::'
p3158
asg7
I01
ssS'd002.s017.t011'
p3159
(dp3160
g4
(lp3161
S'variable%1:10:00::'
p3162
asg7
I00
ssS'd003.s011.t031'
p3163
(dp3164
g4
(lp3165
S'worker%1:18:00::'
p3166
asg7
I00
ssS'd003.s011.t030'
p3167
(dp3168
g4
(lp3169
S'age%2:30:01::'
p3170
asg7
I00
ssS'd001.s024.t037'
p3171
(dp3172
g4
(lp3173
S'cell%1:03:00::'
p3174
asg7
I00
ssS'd001.s024.t035'
p3175
(dp3176
g4
(lp3177
S'material%1:27:00::'
p3178
aS'stuff%1:27:00::'
p3179
asg7
I00
ssS'd001.s024.t034'
p3180
(dp3181
g4
(lp3182
S'genome%1:14:00::'
p3183
asg7
I01
ssS'd001.s028.t006'
p3184
(dp3185
g4
(lp3186
S'cell%1:03:00::'
p3187
asg7
I00
ssS'd001.s038.t004'
p3188
(dp3189
g4
(lp3190
S'patient%1:18:00::'
p3191
asg7
I00
ssS'd001.s037.t018'
p3192
(dp3193
g4
(lp3194
S'time%1:28:00::'
p3195
aS'times%1:28:01::'
p3196
asg7
I00
ssS'd001.s037.t015'
p3197
(dp3198
g4
(lp3199
S'feature%2:42:00::'
p3200
aS'get%2:29:11::'
p3201
aS'have%2:29:05::'
p3202
aS'have%2:42:00::'
p3203
aS'suffer%2:29:01::'
p3204
aS'sustain%2:29:00::'
p3205
asg7
I00
ssS'd001.s037.t014'
p3206
(dp3207
g4
(lp3208
S'cell%1:03:00::'
p3209
asg7
I00
ssS'd001.s037.t017'
p3210
(dp3211
g4
(lp3212
S'endurance%1:26:00::'
p3213
aS'survival%1:26:00::'
p3214
asg7
I00
ssS'd001.s037.t016'
p3215
(dp3216
g4
(lp3217
S'long%3:00:02::'
p3218
asg7
I00
ssS'd001.s037.t011'
p3219
(dp3220
g4
(lp3221
S'non%4:02:00::'
p3222
aS'not%4:02:00::'
p3223
asg7
I00
ssS'd002.s015.t004'
p3224
(dp3225
g4
(lp3226
S'possible%3:00:00::'
p3227
asg7
I00
ssS'd002.s015.t006'
p3228
(dp3229
g4
(lp3230
S'apply%2:34:00::'
p3231
aS'employ%2:34:00::'
p3232
aS'use%2:34:01::'
p3233
aS'utilise%2:34:00::'
p3234
aS'utilize%2:34:00::'
p3235
asg7
I00
ssS'd002.s031.t004'
p3236
(dp3237
g4
(lp3238
S'addition%1:04:01::'
p3239
aS'plus%1:04:00::'
p3240
aS'summation%1:04:01::'
p3241
asg7
I00
ssS'd002.s045.t001'
p3242
(dp3243
g4
(lp3244
S'save%2:32:04::'
p3245
aS'write%2:32:03::'
p3246
asg7
I00
ssS'd003.s010.t027'
p3247
(dp3248
g4
(lp3249
S'commission%1:14:00::'
p3250
aS'commission%1:14:01::'
p3251
aS'committee%1:14:00::'
p3252
aS'delegacy%1:14:00::'
p3253
aS'delegation%1:14:00::'
p3254
aS'deputation%1:14:00::'
p3255
aS'mission%1:14:00::'
p3256
asg7
I00
ssS'd002.s045.t003'
p3257
(dp3258
g4
(lp3259
S'log%1:10:02::'
p3260
asg7
I00
ssS'd003.s003.t024'
p3261
(dp3262
g4
(lp3263
S'social%3:01:00::'
p3264
aS'societal%3:01:00::'
p3265
asg7
I00
ssS'd003.s003.t027'
p3266
(dp3267
g4
(lp3268
S'voluntary%3:00:01::'
p3269
asg7
I00
ssS'd003.s004.t010'
p3270
(dp3271
g4
(lp3272
S'involve%2:42:04::'
p3273
asg7
I00
ssS'd001.s018.t027'
p3274
(dp3275
g4
(lp3276
S'before%4:02:03::'
p3277
aS'earlier%4:02:00::'
p3278
asg7
I00
ssS'd001.s018.t026'
p3279
(dp3280
g4
(lp3281
S'give%2:40:13::'
p3282
asg7
I00
ssS'd002.s013.t008'
p3283
(dp3284
g4
(lp3285
S'minus%1:04:00::'
p3286
aS'subtraction%1:04:01::'
p3287
asg7
I00
ssS'd001.s018.t021'
p3288
(dp3289
g4
(lp3290
S'dehydration%1:26:01::'
p3291
asg7
I00
ssS'd001.s018.t020'
p3292
(dp3293
g4
(lp3294
S'forbid%2:41:03::'
p3295
aS'foreclose%2:41:00::'
p3296
aS'forestall%2:41:01::'
p3297
aS'keep%2:41:01::'
p3298
aS'preclude%2:41:00::'
p3299
aS'prevent%2:41:00::'
p3300
aS'prevent%2:41:01::'
p3301
asg7
I00
ssS'd004.s022.t031'
p3302
(dp3303
g4
(lp3304
S'maximal%3:00:00::'
p3305
aS'maximum%3:00:00::'
p3306
asg7
I00
ssS'd004.s022.t032'
p3307
(dp3308
g4
(lp3309
S'continuance%1:28:02::'
p3310
aS'duration%1:07:00::'
p3311
aS'duration%1:28:02::'
p3312
aS'length%1:07:01::'
p3313
asg7
I00
ssS'd004.s004.t004'
p3314
(dp3315
g4
(lp3316
S'active%3:00:07::'
p3317
asg7
I00
ssS'd002.s013.t006'
p3318
(dp3319
g4
(lp3320
S'addition%1:04:01::'
p3321
aS'plus%1:04:00::'
p3322
aS'summation%1:04:01::'
p3323
asg7
I00
ssS'd001.s002.t027'
p3324
(dp3325
g4
(lp3326
S'apply%2:34:00::'
p3327
aS'employ%2:34:00::'
p3328
aS'habituate%2:34:00::'
p3329
aS'use%2:34:01::'
p3330
aS'use%2:34:02::'
p3331
aS'utilise%2:34:00::'
p3332
aS'utilize%2:34:00::'
p3333
asg7
I00
ssS'd001.s002.t023'
p3334
(dp3335
g4
(lp3336
S'recommendation%1:10:00::'
p3337
asg7
I00
ssS'd002.s052.t008'
p3338
(dp3339
g4
(lp3340
S'same%3:00:02::'
p3341
asg7
I00
ssS'd002.s052.t009'
p3342
(dp3343
g4
(lp3344
S'view%1:07:01::'
p3345
asg7
I00
ssS'd002.s034.t024'
p3346
(dp3347
g4
(lp3348
S'log%1:10:02::'
p3349
asg7
I00
ssS'd001.s027.t010'
p3350
(dp3351
g4
(lp3352
S'compare%2:31:00::'
p3353
asg7
I00
ssS'd001.s028.t007'
p3354
(dp3355
g4
(lp3356
S'lung%1:08:00::'
p3357
asg7
I00
ssS'd002.s052.t003'
p3358
(dp3359
g4
(lp3360
S'lay%2:35:01::'
p3361
aS'place%2:35:00::'
p3362
aS'pose%2:35:02::'
p3363
aS'position%2:35:00::'
p3364
aS'put%2:35:00::'
p3365
aS'set%2:35:00::'
p3366
asg7
I00
ssS'd002.s052.t004'
p3367
(dp3368
g4
(lp3369
S'several%5:00:00:some:00'
p3370
asg7
I00
ssS'd001.s028.t003'
p3371
(dp3372
g4
(lp3373
S'intervention%1:04:02::'
p3374
aS'treatment%1:04:00::'
p3375
asg7
I00
ssS'd002.s034.t018'
p3376
(dp3377
g4
(lp3378
S'but%4:02:01::'
p3379
aS'just%4:02:00::'
p3380
aS'merely%4:02:00::'
p3381
aS'only%4:02:02::'
p3382
aS'simply%4:02:00::'
p3383
asg7
I00
ssS'd004.s020.t020'
p3384
(dp3385
g4
(lp3386
S'address%2:34:00::'
p3387
asg7
I00
ssS'd004.s020.t023'
p3388
(dp3389
g4
(lp3390
S'cause%1:11:00::'
p3391
asg7
I00
ssS'd004.s020.t022'
p3392
(dp3393
g4
(lp3394
S'underlie%2:42:00::'
p3395
asg7
I00
ssS'd003.s013.t002'
p3396
(dp3397
g4
(lp3398
S'case%1:10:02::'
p3399
aS'case%1:11:00::'
p3400
aS'example%1:09:02::'
p3401
aS'example%1:11:00::'
p3402
aS'instance%1:11:00::'
p3403
aS'model%1:09:02::'
p3404
asg7
I00
ssS'd003.s013.t003'
p3405
(dp3406
g4
(lp3407
S'study%1:04:00::'
p3408
aS'survey%1:04:02::'
p3409
asg7
I00
ssS'd001.s036.t002'
p3410
(dp3411
g4
(lp3412
S'patient%1:18:00::'
p3413
asg7
I00
ssS'd001.s036.t005'
p3414
(dp3415
g4
(lp3416
S'non%4:02:00::'
p3417
aS'not%4:02:00::'
p3418
asg7
I00
ssS'd001.s036.t007'
p3419
(dp3420
g4
(lp3421
S'chemotherapy%1:04:00::'
p3422
asg7
I00
ssS'd001.s036.t006'
p3423
(dp3424
g4
(lp3425
S'experience%2:39:00::'
p3426
aS'get%2:39:00::'
p3427
aS'have%2:39:06::'
p3428
aS'receive%2:39:03::'
p3429
asg7
I00
ssS'd001.s010.t039'
p3430
(dp3431
g4
(lp3432
S'other%3:00:00::'
p3433
asg7
I00
ssS'd001.s004.t003'
p3434
(dp3435
g4
(lp3436
S'desire%2:37:00::'
p3437
aS'want%2:37:00::'
p3438
asg7
I00
ssS'd001.s004.t005'
p3439
(dp3440
g4
(lp3441
S'data%1:14:00::'
p3442
aS'information%1:09:00::'
p3443
aS'information%1:14:00::'
p3444
asg7
I00
ssS'd004.s010.t013'
p3445
(dp3446
g4
(lp3447
S'particular%5:00:00:specific:00'
p3448
aS'peculiar%5:00:00:specific:00'
p3449
aS'special%5:00:00:specialized:00'
p3450
aS'special%5:00:01:specific:00'
p3451
asg7
I00
ssS'd001.s004.t008'
p3452
(dp3453
g4
(lp3454
S'base%1:09:00::'
p3455
aS'basis%1:09:00::'
p3456
aS'basis%1:24:00::'
p3457
aS'cornerstone%1:09:00::'
p3458
aS'footing%1:24:00::'
p3459
aS'foundation%1:09:00::'
p3460
aS'fundament%1:09:00::'
p3461
aS'ground%1:24:00::'
p3462
aS'groundwork%1:09:00::'
p3463
asg7
I00
ssS'd003.s008.t014'
p3464
(dp3465
g4
(lp3466
S'social%3:01:00::'
p3467
aS'societal%3:01:00::'
p3468
asg7
I00
ssS'd001.s010.t033'
p3469
(dp3470
g4
(lp3471
S'likely%3:00:00::'
p3472
aS'likely%3:00:04::'
p3473
aS'probable%3:00:00::'
p3474
asg7
I00
ssS'd001.s010.t035'
p3475
(dp3476
g4
(lp3477
S'propagate%2:35:06::'
p3478
aS'spread%2:35:07::'
p3479
asg7
I00
ssS'd001.s010.t036'
p3480
(dp3481
g4
(lp3482
S'easily%4:02:01::'
p3483
aS'easy%4:02:01::'
p3484
asg7
I00
ssS'd004.s006.t011'
p3485
(dp3486
g4
(lp3487
S'face%1:15:00::'
p3488
aS'side%1:06:00::'
p3489
aS'side%1:08:00::'
p3490
aS'side%1:15:00::'
p3491
asg7
I00
ssS'd002.s012.t004'
p3492
(dp3493
g4
(lp3494
S'close%4:02:02::'
p3495
aS'closely%4:02:02::'
p3496
aS'tight%4:02:02::'
p3497
asg7
I00
ssS'd002.s012.t003'
p3498
(dp3499
g4
(lp3500
S'look%2:39:00::'
p3501
asg7
I00
ssS'd001.s014.t020'
p3502
(dp3503
g4
(lp3504
S'chemotherapy%1:04:00::'
p3505
asg7
I00
ssS'd003.s004.t008'
p3506
(dp3507
g4
(lp3508
S'attempt%1:04:00::'
p3509
aS'effort%1:04:00::'
p3510
aS'endeavor%1:04:00::'
p3511
aS'endeavour%1:04:00::'
p3512
aS'try%1:04:00::'
p3513
asg7
I00
ssS'd001.s032.t010'
p3514
(dp3515
g4
(lp3516
S'pleural%3:01:00::'
p3517
asg7
I00
ssS'd001.s032.t011'
p3518
(dp3519
g4
(lp3520
S'mesothelioma%1:26:00::'
p3521
asg7
I00
ssS'd002.s043.t008'
p3522
(dp3523
g4
(lp3524
S'easy%3:00:01::'
p3525
asg7
I00
ssS'd004.s002.t015'
p3526
(dp3527
g4
(lp3528
S'appraise%2:31:01::'
p3529
aS'assess%2:31:00::'
p3530
aS'evaluate%2:31:00::'
p3531
aS'measure%2:31:01::'
p3532
aS'valuate%2:31:00::'
p3533
aS'value%2:31:00::'
p3534
asg7
I00
ssS'd001.s035.t024'
p3535
(dp3536
g4
(lp3537
S'month%1:28:00::'
p3538
asg7
I00
ssS'd004.s002.t017'
p3539
(dp3540
g4
(lp3541
S'study%1:04:00::'
p3542
aS'survey%1:04:02::'
p3543
asg7
I00
ssS'd001.s035.t021'
p3544
(dp3545
g4
(lp3546
S'compare%2:31:00::'
p3547
asg7
I00
ssS'd002.s013.t010'
p3548
(dp3549
g4
(lp3550
S'multiplication%1:04:00::'
p3551
aS'times%1:04:00::'
p3552
asg7
I00
ssS'd002.s053.t002'
p3553
(dp3554
g4
(lp3555
S'apply%2:34:00::'
p3556
aS'employ%2:34:00::'
p3557
aS'use%2:34:01::'
p3558
aS'utilise%2:34:00::'
p3559
aS'utilize%2:34:00::'
p3560
asg7
I00
ssS'd002.s013.t012'
p3561
(dp3562
g4
(lp3563
S'division%1:04:01::'
p3564
asg7
I00
ssS'd001.s017.t004'
p3565
(dp3566
g4
(lp3567
S'effect%1:26:00::'
p3568
asg7
I00
ssS'd004.s024.t006'
p3569
(dp3570
g4
(lp3571
S'especial%5:00:00:uncommon:00'
p3572
aS'exceptional%5:00:00:uncommon:00'
p3573
aS'particular%5:00:00:uncommon:00'
p3574
aS'particular%5:00:02:specific:00'
p3575
aS'special%5:00:00:uncommon:00'
p3576
asg7
I00
ssS'd001.s017.t006'
p3577
(dp3578
g4
(lp3579
S'patient%1:18:00::'
p3580
asg7
I00
ssS'd002.s053.t004'
p3581
(dp3582
g4
(lp3583
S'add%2:30:00::'
p3584
asg7
I00
ssS'd001.s031.t005'
p3585
(dp3586
g4
(lp3587
S'demonstrate%2:31:00::'
p3588
aS'depict%2:36:00::'
p3589
aS'establish%2:31:00::'
p3590
aS'picture%2:36:00::'
p3591
aS'prove%2:31:00::'
p3592
aS'render%2:36:04::'
p3593
aS'shew%2:31:00::'
p3594
aS'show%2:31:00::'
p3595
aS'show%2:36:00::'
p3596
asg7
I00
ssS'd002.s005.t006'
p3597
(dp3598
g4
(lp3599
S'orient%2:30:00::'
p3600
aS'tailor%2:30:00::'
p3601
asg7
I00
ssS'd002.s036.t002'
p3602
(dp3603
g4
(lp3604
S'n%1:10:00::'
p3605
asg7
I00
ssS'd002.s036.t003'
p3606
(dp3607
g4
(lp3608
S'new%3:00:00::'
p3609
aS'new%5:00:00:other:00'
p3610
asg7
I00
ssS'd002.s036.t004'
p3611
(dp3612
g4
(lp3613
S'window%1:06:03::'
p3614
asg7
I00
ssS'd004.s022.t028'
p3615
(dp3616
g4
(lp3617
S'clip%1:11:00::'
p3618
aS'time%1:11:00::'
p3619
asg7
I00
ssS'd003.s018.t021'
p3620
(dp3621
g4
(lp3622
S'barrier%1:09:00::'
p3623
aS'roadblock%1:09:00::'
p3624
asg7
I00
ssS'd004.s020.t008'
p3625
(dp3626
g4
(lp3627
S'alone%4:02:00::'
p3628
aS'entirely%4:02:02::'
p3629
aS'exclusively%4:02:00::'
p3630
aS'only%4:02:01::'
p3631
aS'solely%4:02:00::'
p3632
asg7
I00
ssS'd002.s010.t018'
p3633
(dp3634
g4
(lp3635
S'agnise%2:31:00::'
p3636
aS'agnize%2:31:00::'
p3637
aS'realise%2:31:00::'
p3638
aS'realise%2:31:01::'
p3639
aS'realize%2:31:00::'
p3640
aS'realize%2:31:01::'
p3641
aS'recognise%2:31:01::'
p3642
aS'recognize%2:31:01::'
p3643
aS'see%2:31:01::'
p3644
aS'understand%2:31:01::'
p3645
asg7
I00
ssS'd001.s009.t026'
p3646
(dp3647
g4
(lp3648
S'exposure%1:04:01::'
p3649
aS'exposure%1:26:01::'
p3650
aS'vulnerability%1:26:00::'
p3651
asg7
I00
ssS'd001.s009.t020'
p3652
(dp3653
g4
(lp3654
S'lung%1:08:00::'
p3655
asg7
I00
ssS'd001.s009.t023'
p3656
(dp3657
g4
(lp3658
S'commonly%4:02:00::'
p3659
aS'normally%4:02:00::'
p3660
aS'ordinarily%4:02:00::'
p3661
aS'unremarkably%4:02:00::'
p3662
aS'usually%4:02:00::'
p3663
asg7
I00
ssS'd003.s017.t015'
p3664
(dp3665
g4
(lp3666
S'grooming%1:04:01::'
p3667
aS'preparation%1:04:00::'
p3668
aS'training%1:04:00::'
p3669
asg7
I00
ssS'd002.s010.t011'
p3670
(dp3671
g4
(lp3672
S'best%3:00:00::'
p3673
aS'best%5:00:00:advisable:00'
p3674
aS'better%5:00:00:advisable:00'
p3675
asg7
I00
ssS'd002.s044.t002'
p3676
(dp3677
g4
(lp3678
S's%1:10:00::'
p3679
asg7
I00
ssS'd002.s010.t012'
p3680
(dp3681
g4
(lp3682
S'thing%1:04:00::'
p3683
asg7
I00
ssS'd002.s010.t015'
p3684
(dp3685
g4
(lp3686
S'do%2:36:01::'
p3687
aS'do%2:41:04::'
p3688
aS'execute%2:36:01::'
p3689
aS'perform%2:36:00::'
p3690
aS'perform%2:41:00::'
p3691
asg7
I00
ssS'd001.s009.t028'
p3692
(dp3693
g4
(lp3694
S'asbestos%1:27:00::'
p3695
asg7
I00
ssS'd002.s044.t004'
p3696
(dp3697
g4
(lp3698
S'log%1:10:02::'
p3699
asg7
I00
ssS'd003.s023.t025'
p3700
(dp3701
g4
(lp3702
S'kingdom%1:14:01::'
p3703
aS'kingdom%1:15:01::'
p3704
asg7
I00
ssS'd003.s023.t024'
p3705
(dp3706
g4
(lp3707
S'united%3:00:00::'
p3708
asg7
I00
ssS'd002.s024.t018'
p3709
(dp3710
g4
(lp3711
S'true%3:00:00::'
p3712
aS'true%3:00:04::'
p3713
aS'truthful%3:00:00::'
p3714
asg7
I00
ssS'd002.s024.t013'
p3715
(dp3716
g4
(lp3717
S'condition%1:10:01::'
p3718
aS'precondition%1:10:00::'
p3719
aS'stipulation%1:10:00::'
p3720
asg7
I00
ssS'd002.s024.t011'
p3721
(dp3722
g4
(lp3723
S'apply%2:34:00::'
p3724
aS'employ%2:34:00::'
p3725
aS'use%2:34:01::'
p3726
aS'utilise%2:34:00::'
p3727
aS'utilize%2:34:00::'
p3728
asg7
I00
ssS'd002.s039.t007'
p3729
(dp3730
g4
(lp3731
S'consecutive%4:02:00::'
p3732
aS'sequentially%4:02:00::'
p3733
asg7
I00
ssS'd001.s011.t003'
p3734
(dp3735
g4
(lp3736
S'apply%2:34:00::'
p3737
aS'employ%2:34:00::'
p3738
aS'habituate%2:34:00::'
p3739
aS'use%2:34:01::'
p3740
aS'use%2:34:02::'
p3741
aS'utilise%2:34:00::'
p3742
aS'utilize%2:34:00::'
p3743
asg7
I00
ssS'd002.s051.t018'
p3744
(dp3745
g4
(lp3746
S'chief%5:00:02:important:00'
p3747
aS'main%5:00:00:important:00'
p3748
aS'master%5:00:00:important:00'
p3749
aS'primary%5:00:00:important:00'
p3750
aS'principal%5:00:00:important:00'
p3751
asg7
I00
ssS'd002.s051.t019'
p3752
(dp3753
g4
(lp3754
S'window%1:06:03::'
p3755
asg7
I00
ssS'd003.s008.t019'
p3756
(dp3757
g4
(lp3758
S'national%3:00:00::'
p3759
aS'national%3:00:01::'
p3760
aS'national%3:01:00::'
p3761
asg7
I00
ssS'd003.s007.t002'
p3762
(dp3763
g4
(lp3764
S'foundation%1:14:00::'
p3765
asg7
I00
ssS'd001.s011.t005'
p3766
(dp3767
g4
(lp3768
S'combination%1:04:00::'
p3769
aS'combination%1:14:00::'
p3770
aS'combining%1:04:00::'
p3771
aS'compounding%1:04:00::'
p3772
asg7
I00
ssS'd002.s020.t008'
p3773
(dp3774
g4
(lp3775
S'treat%2:31:00::'
p3776
asg7
I00
ssS'd003.s008.t017'
p3777
(dp3778
g4
(lp3779
S'interpreter%1:18:00::'
p3780
aS'representative%1:18:00::'
p3781
aS'representative%1:18:02::'
p3782
aS'spokesperson%1:18:00::'
p3783
aS'voice%1:18:00::'
p3784
asg7
I00
ssS'd001.s011.t009'
p3785
(dp3786
g4
(lp3787
S'patient%1:18:00::'
p3788
asg7
I00
ssS'd003.s008.t011'
p3789
(dp3790
g4
(lp3791
S'functionary%1:18:00::'
p3792
aS'official%1:18:01::'
p3793
asg7
I00
ssS'd003.s008.t010'
p3794
(dp3795
g4
(lp3796
S'senior%3:00:00::'
p3797
asg7
I00
ssS'd003.s007.t009'
p3798
(dp3799
g4
(lp3800
S'division%1:09:00::'
p3801
aS'part%1:09:00::'
p3802
aS'section%1:09:00::'
p3803
asg7
I00
ssS'd001.s019.t019'
p3804
(dp3805
g4
(lp3806
S'abnormal%3:00:00::'
p3807
aS'abnormal%5:00:00:immoderate:00'
p3808
aS'unnatural%3:00:03::'
p3809
asg7
I00
ssS'd002.s054.t008'
p3810
(dp3811
g4
(lp3812
S'color%1:07:00::'
p3813
aS'color%1:07:01::'
p3814
aS'coloring%1:07:00::'
p3815
aS'colour%1:07:00::'
p3816
aS'colour%1:07:01::'
p3817
aS'colouring%1:07:00::'
p3818
asg7
I00
ssS'd002.s044.t003'
p3819
(dp3820
g4
(lp3821
S'save%2:32:04::'
p3822
aS'write%2:32:03::'
p3823
asg7
I00
ssS'd003.s021.t004'
p3824
(dp3825
g4
(lp3826
S'cultural%5:00:00:social:00'
p3827
aS'ethnic%5:00:00:social:00'
p3828
aS'ethnical%5:00:00:social:00'
p3829
asg7
I00
ssS'd004.s001.t005'
p3830
(dp3831
g4
(lp3832
S'sum-up%1:10:00::'
p3833
aS'summary%1:10:00::'
p3834
asg7
I00
ssS'd004.s001.t008'
p3835
(dp3836
g4
(lp3837
S'european%3:01:00::'
p3838
asg7
I00
ssS'd004.s001.t009'
p3839
(dp3840
g4
(lp3841
S'public%3:00:00::'
p3842
asg7
I00
ssS'd003.s021.t002'
p3843
(dp3844
g4
(lp3845
S'gender%1:07:00::'
p3846
aS'sex%1:07:00::'
p3847
aS'sex%1:14:00::'
p3848
aS'sexuality%1:07:00::'
p3849
asg7
I00
ssS'd001.s029.t009'
p3850
(dp3851
g4
(lp3852
S'anticancer%3:01:00::'
p3853
aS'antineoplastic%3:01:00::'
p3854
aS'antitumor%3:01:00::'
p3855
aS'antitumour%3:01:00::'
p3856
asg7
I00
ssS'd001.s028.t040'
p3857
(dp3858
g4
(lp3859
S'chemotherapy%1:04:00::'
p3860
asg7
I00
ssS'd001.s024.t007'
p3861
(dp3862
g4
(lp3863
S'convert%2:30:03::'
p3864
aS'convert%2:30:04::'
p3865
asg7
I00
ssS'd003.s019.t013'
p3866
(dp3867
g4
(lp3868
S'public%3:00:00::'
p3869
aS'public%5:00:00:common:02'
p3870
asg7
I00
ssS'd001.s019.t001'
p3871
(dp3872
g4
(lp3873
S'intervention%1:04:02::'
p3874
aS'treatment%1:04:00::'
p3875
asg7
I00
ssS'd003.s021.t014'
p3876
(dp3877
g4
(lp3878
S'discrimination%1:04:00::'
p3879
aS'favoritism%1:04:00::'
p3880
aS'favouritism%1:04:00::'
p3881
asg7
I00
ssS'd001.s029.t004'
p3882
(dp3883
g4
(lp3884
S'compare%2:31:00::'
p3885
asg7
I00
ssS'd003.s019.t015'
p3886
(dp3887
g4
(lp3888
S'individual%5:00:00:personal:00'
p3889
aS'private%5:00:00:personal:00'
p3890
asg7
I00
ssS'd003.s003.t006'
p3891
(dp3892
g4
(lp3893
S'chief%5:00:02:important:00'
p3894
aS'main%5:00:00:important:00'
p3895
aS'master%5:00:00:important:00'
p3896
aS'primary%5:00:00:important:00'
p3897
aS'principal%5:00:00:important:00'
p3898
asg7
I00
ssS'd004.s018.t002'
p3899
(dp3900
g4
(lp3901
S'intervention%1:04:02::'
p3902
aS'treatment%1:04:00::'
p3903
asg7
I00
ssS'd001.s019.t010'
p3904
(dp3905
g4
(lp3906
S'dosage%1:06:00::'
p3907
aS'dose%1:06:00::'
p3908
asg7
I00
ssS'd001.s016.t003'
p3909
(dp3910
g4
(lp3911
S'give%2:40:13::'
p3912
asg7
I00
ssS'd001.s016.t007'
p3913
(dp3914
g4
(lp3915
S'hebdomad%1:28:00::'
p3916
aS'week%1:28:00::'
p3917
asg7
I00
ssS'd004.s018.t009'
p3918
(dp3919
g4
(lp3920
S'begin%2:41:04::'
p3921
aS'start%2:41:04::'
p3922
asg7
I00
ssS'd001.s016.t005'
p3923
(dp3924
g4
(lp3925
S'every%5:00:02:all:00'
p3926
asg7
I00
ssS'd003.s011.t001'
p3927
(dp3928
g4
(lp3929
S'case%1:10:02::'
p3930
aS'case%1:11:00::'
p3931
aS'example%1:09:02::'
p3932
aS'example%1:11:00::'
p3933
aS'instance%1:11:00::'
p3934
aS'model%1:09:02::'
p3935
asg7
I00
ssS'd003.s011.t002'
p3936
(dp3937
g4
(lp3938
S'study%1:04:00::'
p3939
aS'survey%1:04:02::'
p3940
asg7
I00
ssS'd003.s021.t013'
p3941
(dp3942
g4
(lp3943
S'ageism%1:04:00::'
p3944
aS'agism%1:04:00::'
p3945
asg7
I01
ssS'd004.s019.t002'
p3946
(dp3947
g4
(lp3948
S'follow-up%1:04:00::'
p3949
aS'follow-up%1:04:01::'
p3950
aS'followup%1:04:00::'
p3951
aS'followup%1:04:01::'
p3952
aS'reexamination%1:04:00::'
p3953
aS'review%1:04:00::'
p3954
asg7
I00
ssS'd004.s023.t007'
p3955
(dp3956
g4
(lp3957
S'individual%1:03:00::'
p3958
aS'mortal%1:03:00::'
p3959
aS'person%1:03:00::'
p3960
aS'somebody%1:03:00::'
p3961
aS'someone%1:03:00::'
p3962
aS'soul%1:03:00::'
p3963
asg7
I00
ssS'd001.s018.t017'
p3964
(dp3965
g4
(lp3966
S'fluid%1:27:00::'
p3967
aS'fluid%1:27:02::'
p3968
asg7
I00
ssS'd003.s006.t008'
p3969
(dp3970
g4
(lp3971
S'european%3:01:00::'
p3972
asg7
I00
ssS'd001.s018.t013'
p3973
(dp3974
g4
(lp3975
S'forbid%2:41:03::'
p3976
aS'foreclose%2:41:00::'
p3977
aS'forestall%2:41:01::'
p3978
aS'keep%2:41:01::'
p3979
aS'preclude%2:41:00::'
p3980
aS'prevent%2:41:00::'
p3981
aS'prevent%2:41:01::'
p3982
asg7
I00
ssS'd003.s006.t002'
p3983
(dp3984
g4
(lp3985
S'foundation%1:14:00::'
p3986
asg7
I00
ssS'd002.s021.t011'
p3987
(dp3988
g4
(lp3989
S'value%1:09:00::'
p3990
asg7
I00
ssS'd002.s029.t020'
p3991
(dp3992
g4
(lp3993
S'trigonometric%3:01:00::'
p3994
asg7
I00
ssS'd002.s029.t023'
p3995
(dp3996
g4
(lp3997
S'addition%1:04:01::'
p3998
aS'plus%1:04:00::'
p3999
aS'summation%1:04:01::'
p4000
asg7
I00
ssS'd004.s024.t007'
p4001
(dp4002
g4
(lp4003
S'endangerment%1:26:00::'
p4004
aS'hazard%1:26:00::'
p4005
aS'jeopardy%1:26:00::'
p4006
aS'peril%1:26:00::'
p4007
aS'risk%1:26:00::'
p4008
asg7
I00
ssS'd003.s007.t013'
p4009
(dp4010
g4
(lp4011
S'project%1:09:00::'
p4012
aS'projection%1:09:00::'
p4013
asg7
I00
ssS'd003.s010.t061'
p4014
(dp4015
g4
(lp4016
S'social%3:01:00::'
p4017
aS'societal%3:01:00::'
p4018
asg7
I00
ssS'd003.s010.t062'
p4019
(dp4020
g4
(lp4021
S'commission%1:14:00::'
p4022
aS'committee%1:14:00::'
p4023
asg7
I00
ssS'd001.s023.t021'
p4024
(dp4025
g4
(lp4026
S'divide%2:35:00::'
p4027
aS'divide%2:38:00::'
p4028
aS'part%2:35:00::'
p4029
aS'separate%2:35:00::'
p4030
aS'separate%2:38:01::'
p4031
asg7
I00
ssS'd001.s023.t025'
p4032
(dp4033
g4
(lp4034
S'cell%1:03:00::'
p4035
asg7
I00
ssS'd001.s023.t029'
p4036
(dp4037
g4
(lp4038
S'belong%2:42:01::'
p4039
asg7
I01
ssS'd002.s008.t016'
p4040
(dp4041
g4
(lp4042
S'3-d%1:09:00::'
p4043
aS'3d%1:09:00::'
p4044
aS'three-d%1:09:00::'
p4045
asg7
I00
ssS'd003.s009.t008'
p4046
(dp4047
g4
(lp4048
S'industry%1:04:00::'
p4049
aS'industry%1:14:00::'
p4050
aS'manufacture%1:04:00::'
p4051
asg7
I00
ssS'd004.s011.t003'
p4052
(dp4053
g4
(lp4054
S'aim%1:09:00::'
p4055
aS'design%1:09:03::'
p4056
aS'intent%1:09:00::'
p4057
aS'intention%1:09:00::'
p4058
aS'purpose%1:09:00::'
p4059
asg7
I00
ssS'd004.s018.t005'
p4060
(dp4061
g4
(lp4062
S'disgorgement%1:04:00::'
p4063
aS'emesis%1:04:00::'
p4064
aS'puking%1:04:00::'
p4065
aS'regurgitation%1:04:00::'
p4066
aS'vomit%1:04:00::'
p4067
aS'vomiting%1:04:00::'
p4068
asg7
I00
ssS'd002.s019.t016'
p4069
(dp4070
g4
(lp4071
S'operator%1:24:00::'
p4072
asg7
I00
ssS'd003.s015.t002'
p4073
(dp4074
g4
(lp4075
S'national%3:00:00::'
p4076
aS'national%3:00:01::'
p4077
aS'national%3:01:00::'
p4078
asg7
I00
ssS'd004.s011.t008'
p4079
(dp4080
g4
(lp4081
S'give%2:40:13::'
p4082
asg7
I00
ssS'd002.s020.t016'
p4083
(dp4084
g4
(lp4085
S'non%4:02:00::'
p4086
aS'not%4:02:00::'
p4087
asg7
I00
ssS'd002.s047.t004'
p4088
(dp4089
g4
(lp4090
S'down%4:02:04::'
p4091
asg7
I00
ssS'd001.s014.t011'
p4092
(dp4093
g4
(lp4094
S'doc%1:18:00::'
p4095
aS'doctor%1:18:00::'
p4096
aS'dr.%1:18:00::'
p4097
aS'md%1:18:00::'
p4098
aS'medico%1:18:00::'
p4099
aS'physician%1:18:00::'
p4100
asg7
I00
ssS'd001.s014.t017'
p4101
(dp4102
g4
(lp4103
S'employment%1:04:01::'
p4104
aS'exercise%1:04:03::'
p4105
aS'usage%1:04:00::'
p4106
aS'use%1:04:00::'
p4107
aS'use%1:07:02::'
p4108
aS'utilisation%1:04:00::'
p4109
aS'utilization%1:04:00::'
p4110
asg7
I00
ssS'd002.s040.t001'
p4111
(dp4112
g4
(lp4113
S'nice%3:00:00::'
p4114
asg7
I00
ssS'd001.s014.t019'
p4115
(dp4116
g4
(lp4117
S'anticancer%3:01:00::'
p4118
aS'antineoplastic%3:01:00::'
p4119
aS'antitumor%3:01:00::'
p4120
aS'antitumour%3:01:00::'
p4121
asg7
I00
ssS'd002.s002.t020'
p4122
(dp4123
g4
(lp4124
S'3-d%1:09:00::'
p4125
aS'3d%1:09:00::'
p4126
aS'three-d%1:09:00::'
p4127
asg7
I00
ssS'd001.s033.t002'
p4128
(dp4129
g4
(lp4130
S'experience%2:39:00::'
p4131
aS'get%2:39:00::'
p4132
aS'have%2:39:06::'
p4133
aS'receive%2:39:03::'
p4134
asg7
I00
ssS'd002.s016.t001'
p4135
(dp4136
g4
(lp4137
S'exponent%1:10:00::'
p4138
aS'index%1:10:02::'
p4139
aS'power%1:10:00::'
p4140
asg7
I00
ssS'd001.s033.t001'
p4141
(dp4142
g4
(lp4143
S'patient%1:18:00::'
p4144
asg7
I00
ssS'd002.s016.t004'
p4145
(dp4146
g4
(lp4147
S'agency%1:04:00::'
p4148
aS'means%1:04:00::'
p4149
aS'method%1:09:00::'
p4150
aS'way%1:04:01::'
p4151
asg7
I00
ssS'd001.s010.t072'
p4152
(dp4153
g4
(lp4154
S'cell%1:03:00::'
p4155
asg7
I00
ssS'd002.s016.t007'
p4156
(dp4157
g4
(lp4158
S'root%1:23:00::'
p4159
asg7
I00
ssS'd003.s022.t009'
p4160
(dp4161
g4
(lp4162
S'discrimination%1:04:00::'
p4163
aS'favoritism%1:04:00::'
p4164
aS'favouritism%1:04:00::'
p4165
asg7
I00
ssS'd003.s005.t009'
p4166
(dp4167
g4
(lp4168
S'different%3:00:02::'
p4169
aS'different%5:00:01:other:00'
p4170
aS'dissimilar%3:00:02::'
p4171
aS'unlike%3:00:00::'
p4172
asg7
I00
ssS'd003.s005.t007'
p4173
(dp4174
g4
(lp4175
S'diverseness%1:07:00::'
p4176
aS'diversity%1:07:02::'
p4177
aS'multifariousness%1:07:00::'
p4178
aS'variety%1:07:00::'
p4179
asg7
I00
ssS'd003.s005.t001'
p4180
(dp4181
g4
(lp4182
S'note%1:10:00::'
p4183
asg7
I00
ssS'd001.s012.t009'
p4184
(dp4185
g4
(lp4186
S'prescription%1:10:01::'
p4187
asg7
I00
ssS'd004.s002.t011'
p4188
(dp4189
g4
(lp4190
S'employment%1:04:01::'
p4191
aS'exercise%1:04:03::'
p4192
aS'usage%1:04:00::'
p4193
aS'use%1:04:00::'
p4194
aS'utilisation%1:04:00::'
p4195
aS'utilization%1:04:00::'
p4196
asg7
I00
ssS'd003.s004.t011'
p4197
(dp4198
g4
(lp4199
S'user%1:18:00::'
p4200
asg7
I00
ssS'd002.s035.t006'
p4201
(dp4202
g4
(lp4203
S'expression%1:10:03::'
p4204
aS'formula%1:10:00::'
p4205
asg7
I00
ssS'd003.s004.t013'
p4206
(dp4207
g4
(lp4208
S'service%1:04:08::'
p4209
aS'services%1:04:00::'
p4210
asg7
I00
ssS'd002.s032.t005'
p4211
(dp4212
g4
(lp4213
S'useful%3:00:00::'
p4214
aS'useful%5:00:00:functional:00'
p4215
aS'utile%3:00:02::'
p4216
aS'utilitarian%5:00:00:functional:00'
p4217
asg7
I00
ssS'd002.s035.t002'
p4218
(dp4219
g4
(lp4220
S'clip%1:11:00::'
p4221
aS'time%1:11:00::'
p4222
asg7
I00
ssS'd003.s004.t017'
p4223
(dp4224
g4
(lp4225
S'engagement%1:04:00::'
p4226
aS'involution%1:04:02::'
p4227
aS'involvement%1:04:00::'
p4228
aS'participation%1:04:00::'
p4229
asg7
I00
ssS'd003.s004.t019'
p4230
(dp4231
g4
(lp4232
S'service%1:04:08::'
p4233
aS'services%1:04:00::'
p4234
asg7
I00
ssS'd002.s048.t004'
p4235
(dp4236
g4
(lp4237
S'new%3:00:00::'
p4238
aS'new%5:00:00:other:00'
p4239
asg7
I00
ssS'd002.s048.t002'
p4240
(dp4241
g4
(lp4242
S'add%2:30:00::'
p4243
asg7
I00
ssS'd004.s009.t014'
p4244
(dp4245
g4
(lp4246
S'chemotherapy%1:04:00::'
p4247
asg7
I00
ssS'd002.s001.t009'
p4248
(dp4249
g4
(lp4250
S'markup%1:10:00::'
p4251
asg7
I00
ssS'd004.s013.t016'
p4252
(dp4253
g4
(lp4254
S'nervous%3:01:00::'
p4255
aS'neural%3:01:01::'
p4256
asg7
I00
ssS'd004.s013.t017'
p4257
(dp4258
g4
(lp4259
S'system%1:08:00::'
p4260
asg7
I00
ssS'd004.s013.t015'
p4261
(dp4262
g4
(lp4263
S'cardinal%5:00:00:important:00'
p4264
aS'central%3:00:01::'
p4265
aS'central%5:00:00:important:00'
p4266
aS'fundamental%5:00:00:important:00'
p4267
aS'key%5:00:00:important:00'
p4268
aS'primal%5:00:00:important:00'
p4269
asg7
I00
ssS'd002.s001.t004'
p4270
(dp4271
g4
(lp4272
S'mathematical%3:01:00::'
p4273
asg7
I00
ssS'd003.s018.t020'
p4274
(dp4275
g4
(lp4276
S'age%1:07:00::'
p4277
asg7
I00
ssS'd002.s001.t006'
p4278
(dp4279
g4
(lp4280
S'base%2:31:00::'
p4281
aS'establish%2:31:03::'
p4282
aS'found%2:31:00::'
p4283
aS'ground%2:31:00::'
p4284
asg7
I00
ssS'd003.s018.t013'
p4285
(dp4286
g4
(lp4287
S'especial%5:00:00:uncommon:00'
p4288
aS'exceptional%5:00:00:uncommon:00'
p4289
aS'particular%5:00:00:uncommon:00'
p4290
aS'special%5:00:00:uncommon:00'
p4291
asg7
I00
ssS'd004.s010.t008'
p4292
(dp4293
g4
(lp4294
S'other%3:00:00::'
p4295
asg7
I00
ssS'd004.s010.t009'
p4296
(dp4297
g4
(lp4298
S'veterinary%3:01:00::'
p4299
asg7
I00
ssS'd003.s007.t006'
p4300
(dp4301
g4
(lp4302
S'comparative%3:01:00::'
p4303
asg7
I00
ssS'd004.s010.t004'
p4304
(dp4305
g4
(lp4306
S'supportive%3:00:00::'
p4307
asg7
I00
ssS'd004.s010.t005'
p4308
(dp4309
g4
(lp4310
S'measure%1:04:01::'
p4311
aS'step%1:04:02::'
p4312
asg7
I00
ssS'd001.s006.t004'
p4313
(dp4314
g4
(lp4315
S'powder%1:06:01::'
p4316
aS'powder%1:27:00::'
p4317
aS'pulverisation%1:27:00::'
p4318
aS'pulverization%1:27:00::'
p4319
asg7
I00
ssS'd004.s010.t002'
p4320
(dp4321
g4
(lp4322
S'combination%1:14:00::'
p4323
asg7
I00
ssS'd003.s011.t004'
p4324
(dp4325
g4
(lp4326
S'national%3:00:00::'
p4327
aS'national%3:00:01::'
p4328
aS'national%3:01:00::'
p4329
asg7
I00
ssS'd003.s011.t006'
p4330
(dp4331
g4
(lp4332
S'comprise%2:42:00::'
p4333
aS'contain%2:42:00::'
p4334
aS'incorporate%2:42:00::'
p4335
asg7
I00
ssS'd003.s006.t021'
p4336
(dp4337
g4
(lp4338
S'authorities%1:14:00::'
p4339
aS'government%1:14:00::'
p4340
aS'regime%1:14:00::'
p4341
asg7
I00
ssS'd002.s017.t006'
p4342
(dp4343
g4
(lp4344
S'agency%1:04:00::'
p4345
aS'means%1:04:00::'
p4346
aS'method%1:09:00::'
p4347
aS'way%1:04:01::'
p4348
asg7
I00
ssS'd002.s017.t005'
p4349
(dp4350
g4
(lp4351
S'agency%1:04:00::'
p4352
aS'means%1:04:00::'
p4353
aS'way%1:04:01::'
p4354
asg7
I01
ssS'd002.s017.t008'
p4355
(dp4356
g4
(lp4357
S'define%2:32:01::'
p4358
aS'determine%2:32:03::'
p4359
aS'fix%2:32:03::'
p4360
aS'limit%2:32:00::'
p4361
aS'set%2:32:00::'
p4362
aS'specify%2:32:02::'
p4363
asg7
I00
ssS'd003.s011.t008'
p4364
(dp4365
g4
(lp4366
S'portfolio%1:14:00::'
p4367
asg7
I00
ssS'd002.s041.t002'
p4368
(dp4369
g4
(lp4370
S'g%1:10:00::'
p4371
asg7
I00
ssS'd002.s041.t003'
p4372
(dp4373
g4
(lp4374
S'save%2:32:04::'
p4375
aS'write%2:32:03::'
p4376
asg7
I00
ssS'd003.s022.t002'
p4377
(dp4378
g4
(lp4379
S'project%1:09:00::'
p4380
aS'projection%1:09:00::'
p4381
asg7
I00
ssS'd001.s012.t006'
p4382
(dp4383
g4
(lp4384
S'acquire%2:40:00::'
p4385
aS'get%2:40:00::'
p4386
aS'obtain%2:40:00::'
p4387
asg7
I00
ssS'd001.s015.t003'
p4388
(dp4389
g4
(lp4390
S'dosage%1:06:00::'
p4391
aS'dose%1:06:00::'
p4392
asg7
I00
ssS'd001.s018.t004'
p4393
(dp4394
g4
(lp4395
S'give%2:40:13::'
p4396
asg7
I00
ssS'd002.s050.t007'
p4397
(dp4398
g4
(lp4399
S'typical%5:00:00:normal:01'
p4400
asg7
I00
ssS'd003.s022.t008'
p4401
(dp4402
g4
(lp4403
S'ageism%1:04:00::'
p4404
aS'agism%1:04:00::'
p4405
asg7
I01
ssS'd002.s050.t005'
p4406
(dp4407
g4
(lp4408
S'apply%2:34:00::'
p4409
aS'employ%2:34:00::'
p4410
aS'use%2:34:01::'
p4411
aS'utilise%2:34:00::'
p4412
aS'utilize%2:34:00::'
p4413
asg7
I00
ssS'd002.s050.t003'
p4414
(dp4415
g4
(lp4416
S'desire%2:37:00::'
p4417
aS'want%2:37:00::'
p4418
asg7
I00
ssS'd001.s015.t008'
p4419
(dp4420
g4
(lp4421
S'mg%1:23:00::'
p4422
aS'milligram%1:23:00::'
p4423
asg7
I00
ssS'd004.s014.t005'
p4424
(dp4425
g4
(lp4426
S'analyse%2:31:00::'
p4427
aS'analyze%2:31:00::'
p4428
aS'canvas%2:31:02::'
p4429
aS'canvass%2:31:02::'
p4430
aS'examine%2:31:00::'
p4431
aS'study%2:31:02::'
p4432
asg7
I00
ssS'd002.s051.t013'
p4433
(dp4434
g4
(lp4435
S'display%2:39:00::'
p4436
aS'exhibit%2:39:01::'
p4437
aS'expose%2:39:00::'
p4438
asg7
I00
ssS'd003.s018.t015'
p4439
(dp4440
g4
(lp4441
S'devote%2:31:00::'
p4442
aS'give%2:31:02::'
p4443
aS'give%2:32:01::'
p4444
aS'pay%2:31:00::'
p4445
aS'pay%2:32:00::'
p4446
asg7
I00
ss.