(dp1
S'best_polysemous_accuracy'
p2
F0.69383003492399997
sS'best_setting'
p3
(lp4
S'Entropy_sense_ranking_IMS'
p5
aS'MFS_confidence_IMS'
p6
aS'WND_for_MFS'
p7
aS'correlation_confidences_semcor_and_IMS'
p8
aS'pos'
p9
aS'ratio_WND'
p10
as.