(dp1
S'best_polysemous_accuracy'
p2
F0.64620107444399999
sS'best_setting'
p3
(lp4
S'MFS_confidence_IMS'
p5
aS'correlation_confidences_semcor_and_IMS'
p6
aS'idf'
p7
aS'jex'
p8
aS'pos'
p9
aS'ratio_WND'
p10
as.